
StarterKit.elf:     file format elf32-avr

Sections:
Idx Name          Size      VMA       LMA       File off  Algn
  0 .data         00000016  00800100  00003f18  00004018  2**0
                  CONTENTS, ALLOC, LOAD, DATA
  1 .text         00003f18  00000000  00000000  00000100  2**8
                  CONTENTS, ALLOC, LOAD, READONLY, CODE
  2 .bss          000008a2  00800116  00800116  0000402e  2**1
                  ALLOC
  3 .comment      00000011  00000000  00000000  0000402e  2**0
                  CONTENTS, READONLY
  4 .note.gnu.avr.deviceinfo 0000003c  00000000  00000000  00004040  2**2
                  CONTENTS, READONLY
  5 .debug_aranges 00000418  00000000  00000000  00004080  2**3
                  CONTENTS, READONLY, DEBUGGING
  6 .debug_info   00003ab7  00000000  00000000  00004498  2**0
                  CONTENTS, READONLY, DEBUGGING
  7 .debug_abbrev 000010ed  00000000  00000000  00007f4f  2**0
                  CONTENTS, READONLY, DEBUGGING
  8 .debug_line   00002b48  00000000  00000000  0000903c  2**0
                  CONTENTS, READONLY, DEBUGGING
  9 .debug_frame  000008e8  00000000  00000000  0000bb84  2**2
                  CONTENTS, READONLY, DEBUGGING
 10 .debug_str    00000eba  00000000  00000000  0000c46c  2**0
                  CONTENTS, READONLY, DEBUGGING
 11 .debug_loc    000034a6  00000000  00000000  0000d326  2**0
                  CONTENTS, READONLY, DEBUGGING
 12 .debug_ranges 00000420  00000000  00000000  000107d0  2**3
                  CONTENTS, READONLY, DEBUGGING

Disassembly of section .text:

00000000 <__vectors>:
       0:	0c 94 e4 0d 	jmp	0x1bc8	; 0x1bc8 <__ctors_end>
       4:	0c 94 5d 0e 	jmp	0x1cba	; 0x1cba <__bad_interrupt>
       8:	0c 94 5d 0e 	jmp	0x1cba	; 0x1cba <__bad_interrupt>
       c:	0c 94 5d 0e 	jmp	0x1cba	; 0x1cba <__bad_interrupt>
      10:	0c 94 5d 0e 	jmp	0x1cba	; 0x1cba <__bad_interrupt>
      14:	0c 94 5d 0e 	jmp	0x1cba	; 0x1cba <__bad_interrupt>
      18:	0c 94 5d 0e 	jmp	0x1cba	; 0x1cba <__bad_interrupt>
      1c:	0c 94 5d 0e 	jmp	0x1cba	; 0x1cba <__bad_interrupt>
      20:	0c 94 5d 0e 	jmp	0x1cba	; 0x1cba <__bad_interrupt>
      24:	0c 94 5d 0e 	jmp	0x1cba	; 0x1cba <__bad_interrupt>
      28:	0c 94 5d 0e 	jmp	0x1cba	; 0x1cba <__bad_interrupt>
      2c:	0c 94 5d 0e 	jmp	0x1cba	; 0x1cba <__bad_interrupt>
      30:	0c 94 5d 0e 	jmp	0x1cba	; 0x1cba <__bad_interrupt>
      34:	0c 94 b8 0e 	jmp	0x1d70	; 0x1d70 <__vector_13>
      38:	0c 94 f7 0e 	jmp	0x1dee	; 0x1dee <__vector_14>
      3c:	0c 94 5d 0e 	jmp	0x1cba	; 0x1cba <__bad_interrupt>
      40:	0c 94 5d 0e 	jmp	0x1cba	; 0x1cba <__bad_interrupt>
      44:	0c 94 5d 0e 	jmp	0x1cba	; 0x1cba <__bad_interrupt>
      48:	0c 94 5d 0e 	jmp	0x1cba	; 0x1cba <__bad_interrupt>
      4c:	0c 94 5d 0e 	jmp	0x1cba	; 0x1cba <__bad_interrupt>
      50:	0c 94 5d 0e 	jmp	0x1cba	; 0x1cba <__bad_interrupt>
      54:	0c 94 5d 0e 	jmp	0x1cba	; 0x1cba <__bad_interrupt>
      58:	0c 94 5d 0e 	jmp	0x1cba	; 0x1cba <__bad_interrupt>
      5c:	0c 94 5d 0e 	jmp	0x1cba	; 0x1cba <__bad_interrupt>
      60:	0c 94 5d 0e 	jmp	0x1cba	; 0x1cba <__bad_interrupt>
      64:	0c 94 5d 0e 	jmp	0x1cba	; 0x1cba <__bad_interrupt>
      68:	0c 94 5d 0e 	jmp	0x1cba	; 0x1cba <__bad_interrupt>
      6c:	0c 94 5d 0e 	jmp	0x1cba	; 0x1cba <__bad_interrupt>

00000070 <__trampolines_end>:
      70:	5a 55       	subi	r21, 0x5A	; 90
      72:	01 20       	and	r0, r1
      74:	01 01       	movw	r0, r2
      76:	00 38       	cpi	r16, 0x80	; 128
      78:	08 00       	.word	0x0008	; ????
	...

00000090 <io_table>:
      90:	81 00 45 00 5d ff 5e 10 27 ff 2a d2 2b 7d 21 0c     ..E.].^.'.*.+}!.
      a0:	22 fb 85 00 84 00 89 03 88 8d 81 09 6f 02 44 42     "...........o.DB
      b0:	47 00 45 01 b0 83 b3 00 b1 01 24 b9 25 57 8a 1d     G.E.......$.%W..
      c0:	8b 03                                               ..

000000c2 <patchCommands>:
      c2:	84 11 87 11 8f 11 93 11 9a 11 a2 11 a7 11 ac 11     ................
      d2:	af 11 bf 11 c2 11 c5 11 00 12 03 12 06 12           ..............

000000e0 <fader>:
      e0:	00 40 88 91 d2 e4 ad b5 b6 be bf ff                 .@..........

000000ec <font>:
	...
     140:	00 00 ff 00 00 00 00 00 ff 00 00 00 00 00 ff 00     ................
     150:	00 00 00 00 ff 00 00 00 00 00 ff 00 00 00 00 00     ................
     160:	00 00 00 00 00 00 ff 00 00 00 00 00 00 00 00 00     ................
	...
     180:	00 00 00 ff 00 ff 00 00 00 ff 00 ff 00 00 00 ff     ................
     190:	00 ff 00 00 00 00 00 00 00 00 00 00 00 00 00 00     ................
	...
     1d4:	00 00 00 ff 00 ff 00 00 ff ff ff ff ff 00 00 ff     ................
     1e4:	00 ff 00 00 00 ff 00 ff 00 00 ff ff ff ff ff 00     ................
     1f4:	00 ff 00 ff 00 00 00 00 00 00 00 00 00 00 00 00     ................
	...
     214:	ff 00 00 00 00 ff ff ff 00 00 ff 00 ff 00 ff 00     ................
     224:	ff 00 ff 00 00 00 00 ff ff ff 00 00 00 00 ff 00     ................
     234:	ff 00 ff 00 ff 00 ff 00 00 ff ff ff 00 00 00 00     ................
     244:	ff 00 00 00 00 00 00 00 00 00 00 00 00 00 00 00     ................
	...
     260:	ff ff 00 00 ff 00 ff ff 00 00 ff 00 00 00 00 ff     ................
     270:	00 00 00 00 ff 00 00 00 00 ff 00 00 00 00 ff 00     ................
     280:	00 ff ff 00 ff 00 00 ff ff 00 00 00 00 00 00 00     ................
	...
     2a8:	00 ff 00 00 00 00 ff 00 ff 00 00 00 ff 00 ff 00     ................
     2b8:	00 00 00 ff 00 00 00 00 ff 00 ff 00 ff 00 ff 00     ................
     2c8:	00 ff 00 00 00 ff ff 00 ff 00 00 00 00 00 00 00     ................
	...
     2ec:	ff 00 00 00 00 00 ff 00 00 00 00 00 ff 00 00 00     ................
	...
     334:	00 ff 00 00 00 00 ff 00 00 00 00 00 ff 00 00 00     ................
     344:	00 ff 00 00 00 00 00 ff 00 00 00 00 00 ff 00 00     ................
     354:	00 00 00 00 ff 00 00 00 00 00 ff 00 00 00 00 00     ................
     364:	00 ff 00 00 00 00 00 00 00 00 00 00 00 00 00 00     ................
     374:	00 00 00 00 00 00 00 ff 00 00 00 00 00 00 ff 00     ................
     384:	00 00 00 00 ff 00 00 00 00 00 00 ff 00 00 00 00     ................
     394:	00 ff 00 00 00 00 00 ff 00 00 00 00 ff 00 00 00     ................
     3a4:	00 00 ff 00 00 00 00 ff 00 00 00 00 00 00 00 00     ................
	...
     3c8:	00 00 ff 00 00 00 ff 00 ff 00 ff 00 00 ff ff ff     ................
     3d8:	00 00 00 00 ff 00 00 00 00 ff ff ff 00 00 ff 00     ................
     3e8:	ff 00 ff 00 00 00 ff 00 00 00 00 00 00 00 00 00     ................
	...
     418:	ff 00 00 00 00 00 ff 00 00 00 ff ff ff ff ff 00     ................
     428:	00 00 ff 00 00 00 00 00 ff 00 00 00 00 00 00 00     ................
	...
     474:	00 00 00 ff ff 00 00 00 00 ff ff 00 00 00 ff ff     ................
	...
     4b0:	00 00 ff ff ff ff ff 00 00 00 00 00 00 00 00 00     ................
	...
     504:	00 00 00 ff ff 00 00 00 00 ff ff 00 00 00 00 00     ................
	...
     534:	ff 00 00 00 00 ff 00 00 00 00 00 ff 00 00 00 00     ................
     544:	ff 00 00 00 00 ff 00 00 00 00 00 ff 00 00 00 00     ................
     554:	ff 00 00 00 00 00 00 00 00 00 00 00 00 00 00 00     ................
	...
     578:	00 00 ff ff 00 00 00 ff 00 00 ff 00 00 ff 00 00     ................
     588:	ff 00 00 ff 00 00 ff 00 00 ff 00 00 ff 00 00 ff     ................
     598:	00 00 ff 00 00 00 ff ff 00 00 00 00 00 00 00 00     ................
	...
     5c0:	00 00 ff 00 00 00 00 ff ff 00 00 00 00 00 ff 00     ................
     5d0:	00 00 00 00 ff 00 00 00 00 00 ff 00 00 00 00 00     ................
     5e0:	ff 00 00 00 00 ff ff ff 00 00 00 00 00 00 00 00     ................
	...
     608:	00 ff ff ff 00 00 ff 00 00 00 ff 00 00 00 00 00     ................
     618:	ff 00 00 00 00 ff 00 00 00 00 ff 00 00 00 00 ff     ................
     628:	00 00 00 00 ff ff ff ff ff 00 00 00 00 00 00 00     ................
	...
     650:	ff ff ff ff ff 00 00 00 00 00 ff 00 00 00 00 ff     ................
     660:	00 00 00 00 ff ff 00 00 00 00 00 00 ff 00 ff 00     ................
     670:	00 00 ff 00 00 ff ff ff 00 00 00 00 00 00 00 00     ................
	...
     698:	00 00 00 ff 00 00 00 00 ff ff 00 00 00 ff 00 ff     ................
     6a8:	00 00 ff 00 00 ff 00 00 ff ff ff ff ff 00 00 00     ................
     6b8:	00 ff 00 00 00 00 00 ff 00 00 00 00 00 00 00 00     ................
	...
     6e0:	ff ff ff ff ff 00 ff 00 00 00 00 00 ff ff ff ff     ................
     6f0:	00 00 00 00 00 00 ff 00 00 00 00 00 ff 00 ff 00     ................
     700:	00 00 ff 00 00 ff ff ff 00 00 00 00 00 00 00 00     ................
	...
     728:	00 00 ff ff 00 00 00 ff 00 00 00 00 ff 00 00 00     ................
     738:	00 00 ff ff ff ff 00 00 ff 00 00 00 ff 00 ff 00     ................
     748:	00 00 ff 00 00 ff ff ff 00 00 00 00 00 00 00 00     ................
	...
     770:	ff ff ff ff ff 00 00 00 00 00 ff 00 00 00 00 ff     ................
     780:	00 00 00 00 00 ff 00 00 00 00 ff 00 00 00 00 00     ................
     790:	ff 00 00 00 00 00 ff 00 00 00 00 00 00 00 00 00     ................
	...
     7b8:	00 ff ff ff 00 00 ff 00 00 00 ff 00 ff 00 00 00     ................
     7c8:	ff 00 00 ff ff ff 00 00 ff 00 00 00 ff 00 ff 00     ................
     7d8:	00 00 ff 00 00 ff ff ff 00 00 00 00 00 00 00 00     ................
	...
     800:	00 ff ff ff 00 00 ff 00 00 00 ff 00 ff 00 00 00     ................
     810:	ff 00 00 ff ff ff ff 00 00 00 00 00 ff 00 00 00     ................
     820:	00 ff 00 00 00 ff ff 00 00 00 00 00 00 00 00 00     ................
	...
     854:	00 ff ff 00 00 00 00 ff ff 00 00 00 00 00 00 00     ................
     864:	00 00 00 ff ff 00 00 00 00 ff ff 00 00 00 00 00     ................
	...
     89c:	00 ff ff 00 00 00 00 ff ff 00 00 00 00 00 00 00     ................
     8ac:	00 00 00 ff ff 00 00 00 00 ff ff 00 00 00 ff ff     ................
	...
     8e0:	00 ff 00 00 00 00 ff 00 00 00 00 ff 00 00 00 00     ................
     8f0:	00 00 ff 00 00 00 00 00 00 ff 00 00 00 00 00 00     ................
	...
     92c:	ff ff ff ff ff 00 00 00 00 00 00 00 ff ff ff ff     ................
     93c:	ff 00 00 00 00 00 00 00 00 00 00 00 00 00 00 00     ................
	...
     96c:	00 00 00 ff 00 00 00 00 00 00 ff 00 00 00 00 00     ................
     97c:	00 ff 00 00 00 00 ff 00 00 00 00 ff 00 00 00 00     ................
	...
     9b0:	00 ff ff ff 00 00 ff 00 00 00 ff 00 00 00 00 ff     ................
     9c0:	00 00 00 00 ff 00 00 00 00 00 ff 00 00 00 00 00     ................
     9d0:	00 00 00 00 00 00 ff 00 00 00 00 00 00 00 00 00     ................
	...
     9f8:	00 ff ff ff 00 00 ff 00 00 00 ff 00 ff 00 ff ff     ................
     a08:	ff 00 ff 00 ff 00 ff 00 ff 00 ff ff ff 00 ff 00     ................
     a18:	00 00 00 00 00 ff ff ff 00 00 00 00 00 00 00 00     ................
	...
     a40:	00 ff ff ff 00 00 ff 00 00 00 ff 00 ff 00 00 00     ................
     a50:	ff 00 ff ff ff ff ff 00 ff 00 00 00 ff 00 ff 00     ................
     a60:	00 00 ff 00 ff 00 00 00 ff 00 00 00 00 00 00 00     ................
	...
     a88:	ff ff ff ff 00 00 00 ff 00 00 ff 00 00 ff 00 00     ................
     a98:	ff 00 00 ff ff ff 00 00 00 ff 00 00 ff 00 00 ff     ................
     aa8:	00 00 ff 00 ff ff ff ff 00 00 00 00 00 00 00 00     ................
	...
     ad0:	00 ff ff ff 00 00 ff 00 00 00 ff 00 ff 00 00 00     ................
     ae0:	00 00 ff 00 00 00 00 00 ff 00 00 00 00 00 ff 00     ................
     af0:	00 00 ff 00 00 ff ff ff 00 00 00 00 00 00 00 00     ................
	...
     b18:	ff ff ff ff 00 00 00 ff 00 00 ff 00 00 ff 00 00     ................
     b28:	ff 00 00 ff 00 00 ff 00 00 ff 00 00 ff 00 00 ff     ................
     b38:	00 00 ff 00 ff ff ff ff 00 00 00 00 00 00 00 00     ................
	...
     b60:	ff ff ff ff ff 00 ff 00 00 00 00 00 ff 00 00 00     ................
     b70:	00 00 ff ff ff ff 00 00 ff 00 00 00 00 00 ff 00     ................
     b80:	00 00 00 00 ff ff ff ff ff 00 00 00 00 00 00 00     ................
	...
     ba8:	ff ff ff ff ff 00 ff 00 00 00 00 00 ff 00 00 00     ................
     bb8:	00 00 ff ff ff ff 00 00 ff 00 00 00 00 00 ff 00     ................
     bc8:	00 00 00 00 ff 00 00 00 00 00 00 00 00 00 00 00     ................
	...
     bf0:	00 ff ff ff 00 00 ff 00 00 00 ff 00 ff 00 00 00     ................
     c00:	00 00 ff 00 00 00 00 00 ff 00 00 ff ff 00 ff 00     ................
     c10:	00 00 ff 00 00 ff ff ff 00 00 00 00 00 00 00 00     ................
	...
     c38:	ff 00 00 00 ff 00 ff 00 00 00 ff 00 ff 00 00 00     ................
     c48:	ff 00 ff ff ff ff ff 00 ff 00 00 00 ff 00 ff 00     ................
     c58:	00 00 ff 00 ff 00 00 00 ff 00 00 00 00 00 00 00     ................
	...
     c80:	00 ff ff ff 00 00 00 00 ff 00 00 00 00 00 ff 00     ................
     c90:	00 00 00 00 ff 00 00 00 00 00 ff 00 00 00 00 00     ................
     ca0:	ff 00 00 00 00 ff ff ff 00 00 00 00 00 00 00 00     ................
	...
     cc8:	00 00 ff ff ff 00 00 00 00 ff 00 00 00 00 00 ff     ................
     cd8:	00 00 00 00 00 ff 00 00 00 00 00 ff 00 00 ff 00     ................
     ce8:	00 ff 00 00 00 ff ff 00 00 00 00 00 00 00 00 00     ................
	...
     d10:	ff 00 00 00 ff 00 ff 00 00 ff 00 00 ff 00 ff 00     ................
     d20:	00 00 ff ff 00 00 00 00 ff 00 ff 00 00 00 ff 00     ................
     d30:	00 ff 00 00 ff 00 00 00 ff 00 00 00 00 00 00 00     ................
	...
     d58:	ff 00 00 00 00 00 ff 00 00 00 00 00 ff 00 00 00     ................
     d68:	00 00 ff 00 00 00 00 00 ff 00 00 00 00 00 ff 00     ................
     d78:	00 00 00 00 ff ff ff ff ff 00 00 00 00 00 00 00     ................
	...
     da0:	ff 00 00 00 ff 00 ff ff 00 ff ff 00 ff 00 ff 00     ................
     db0:	ff 00 ff 00 00 00 ff 00 ff 00 00 00 ff 00 ff 00     ................
     dc0:	00 00 ff 00 ff 00 00 00 ff 00 00 00 00 00 00 00     ................
	...
     de8:	ff 00 00 00 ff 00 ff 00 00 00 ff 00 ff ff 00 00     ................
     df8:	ff 00 ff 00 ff 00 ff 00 ff 00 00 ff ff 00 ff 00     ................
     e08:	00 00 ff 00 ff 00 00 00 ff 00 00 00 00 00 00 00     ................
	...
     e30:	00 ff ff ff 00 00 ff 00 00 00 ff 00 ff 00 00 00     ................
     e40:	ff 00 ff 00 00 00 ff 00 ff 00 00 00 ff 00 ff 00     ................
     e50:	00 00 ff 00 00 ff ff ff 00 00 00 00 00 00 00 00     ................
	...
     e78:	ff ff ff ff 00 00 ff 00 00 00 ff 00 ff 00 00 00     ................
     e88:	ff 00 ff ff ff ff 00 00 ff 00 00 00 00 00 ff 00     ................
     e98:	00 00 00 00 ff 00 00 00 00 00 00 00 00 00 00 00     ................
	...
     ec0:	00 ff ff ff 00 00 ff 00 00 00 ff 00 ff 00 00 00     ................
     ed0:	ff 00 ff 00 00 00 ff 00 ff 00 ff 00 ff 00 ff 00     ................
     ee0:	00 ff 00 00 00 ff ff 00 ff 00 00 00 00 00 00 00     ................
	...
     f08:	ff ff ff ff 00 00 ff 00 00 00 ff 00 ff 00 00 00     ................
     f18:	ff 00 ff ff ff ff 00 00 ff 00 ff 00 00 00 ff 00     ................
     f28:	00 ff 00 00 ff 00 00 00 ff 00 00 00 00 00 00 00     ................
	...
     f50:	00 ff ff ff 00 00 ff 00 00 00 ff 00 ff 00 00 00     ................
     f60:	00 00 00 ff ff ff 00 00 00 00 00 00 ff 00 ff 00     ................
     f70:	00 00 ff 00 00 ff ff ff 00 00 00 00 00 00 00 00     ................
	...
     f98:	ff ff ff ff ff 00 00 00 ff 00 00 00 00 00 ff 00     ................
     fa8:	00 00 00 00 ff 00 00 00 00 00 ff 00 00 00 00 00     ................
     fb8:	ff 00 00 00 00 00 ff 00 00 00 00 00 00 00 00 00     ................
	...
     fe0:	ff 00 00 00 ff 00 ff 00 00 00 ff 00 ff 00 00 00     ................
     ff0:	ff 00 ff 00 00 00 ff 00 ff 00 00 00 ff 00 ff 00     ................
    1000:	00 00 ff 00 00 ff ff ff 00 00 00 00 00 00 00 00     ................
	...
    1028:	ff 00 00 00 ff 00 ff 00 00 00 ff 00 ff 00 00 00     ................
    1038:	ff 00 ff 00 00 00 ff 00 00 ff 00 ff 00 00 00 ff     ................
    1048:	00 ff 00 00 00 00 ff 00 00 00 00 00 00 00 00 00     ................
	...
    1070:	ff 00 00 00 ff 00 ff 00 00 00 ff 00 ff 00 00 00     ................
    1080:	ff 00 ff 00 00 00 ff 00 ff 00 ff 00 ff 00 ff 00     ................
    1090:	ff 00 ff 00 00 ff 00 ff 00 00 00 00 00 00 00 00     ................
	...
    10b8:	ff 00 00 00 ff 00 ff 00 00 00 ff 00 00 ff 00 ff     ................
    10c8:	00 00 00 00 ff 00 00 00 00 ff 00 ff 00 00 ff 00     ................
    10d8:	00 00 ff 00 ff 00 00 00 ff 00 00 00 00 00 00 00     ................
	...
    1100:	ff 00 00 00 ff 00 ff 00 00 00 ff 00 00 ff 00 ff     ................
    1110:	00 00 00 00 ff 00 00 00 00 00 ff 00 00 00 00 00     ................
    1120:	ff 00 00 00 00 00 ff 00 00 00 00 00 00 00 00 00     ................
	...
    1148:	ff ff ff ff ff 00 00 00 00 00 ff 00 00 00 00 ff     ................
    1158:	00 00 00 00 ff 00 00 00 00 ff 00 00 00 00 ff 00     ................
    1168:	00 00 00 00 ff ff ff ff ff 00 00 00 00 00 00 00     ................
	...
    1188:	00 00 00 ff ff ff 00 00 00 ff 00 00 00 00 00 ff     ................
    1198:	00 00 00 00 00 ff 00 00 00 00 00 ff 00 00 00 00     ................
    11a8:	00 ff 00 00 00 00 00 ff 00 00 00 00 00 ff 00 00     ................
    11b8:	00 00 00 ff ff ff 00 00 00 00 00 00 00 00 00 00     ................
	...
    11d8:	ff 00 00 00 00 00 00 ff 00 00 00 00 00 ff 00 00     ................
    11e8:	00 00 00 00 ff 00 00 00 00 00 00 ff 00 00 00 00     ................
    11f8:	00 ff 00 00 00 00 00 00 ff 00 00 00 00 00 00 00     ................
	...
    1218:	00 00 00 ff ff ff 00 00 00 00 00 ff 00 00 00 00     ................
    1228:	00 ff 00 00 00 00 00 ff 00 00 00 00 00 ff 00 00     ................
    1238:	00 00 00 ff 00 00 00 00 00 ff 00 00 00 00 00 ff     ................
    1248:	00 00 00 ff ff ff 00 00 00 00 00 00 00 00 00 00     ................
	...
    1264:	ff 00 00 00 00 ff 00 ff 00 00 ff 00 00 00 ff 00     ................
	...
    12e0:	ff ff ff ff ff 00 00 00 00 00 00 00 00 00 00 00     ................
    12f0:	00 00 00 ff 00 00 00 00 00 00 ff 00 00 00 00 00     ................
    1300:	00 ff 00 00 00 00 00 00 00 00 00 00 00 00 00 00     ................
	...
    134c:	00 ff ff ff 00 00 00 00 00 00 ff 00 00 ff ff ff     ................
    135c:	ff 00 ff 00 00 00 ff 00 00 ff ff ff ff 00 00 00     ................
	...
    1388:	ff 00 00 00 00 00 ff 00 00 00 00 00 ff ff ff ff     ................
    1398:	00 00 ff 00 00 00 ff 00 ff 00 00 00 ff 00 ff 00     ................
    13a8:	00 00 ff 00 ff ff ff ff 00 00 00 00 00 00 00 00     ................
	...
    13dc:	00 ff ff ff 00 00 ff 00 00 00 ff 00 ff 00 00 00     ................
    13ec:	00 00 ff 00 00 00 ff 00 00 ff ff ff 00 00 00 00     ................
	...
    141c:	ff 00 00 00 00 00 ff 00 00 ff ff ff ff 00 ff 00     ................
    142c:	00 00 ff 00 ff 00 00 00 ff 00 ff 00 00 00 ff 00     ................
    143c:	00 ff ff ff ff 00 00 00 00 00 00 00 00 00 00 00     ................
	...
    146c:	00 ff ff ff 00 00 ff 00 00 00 ff 00 ff ff ff ff     ................
    147c:	00 00 ff 00 00 00 00 00 00 ff ff ff 00 00 00 00     ................
	...
    14a8:	00 00 ff ff 00 00 00 ff 00 00 ff 00 00 ff 00 00     ................
    14b8:	00 00 ff ff ff 00 00 00 00 ff 00 00 00 00 00 ff     ................
    14c8:	00 00 00 00 00 ff 00 00 00 00 00 00 00 00 00 00     ................
	...
    14fc:	00 ff ff ff 00 00 ff 00 00 00 ff 00 ff 00 00 00     ................
    150c:	ff 00 ff 00 00 00 ff 00 00 ff ff ff ff 00 00 00     ................
    151c:	00 00 ff 00 00 ff ff ff 00 00 00 00 00 00 00 00     ................
	...
    1538:	ff 00 00 00 00 00 ff 00 00 00 00 00 ff ff ff ff     ................
    1548:	00 00 ff 00 00 00 ff 00 ff 00 00 00 ff 00 ff 00     ................
    1558:	00 00 ff 00 ff 00 00 00 ff 00 00 00 00 00 00 00     ................
	...
    1580:	00 00 ff 00 00 00 00 00 00 00 00 00 00 ff ff 00     ................
    1590:	00 00 00 00 ff 00 00 00 00 00 ff 00 00 00 00 00     ................
    15a0:	ff 00 00 00 00 ff ff ff 00 00 00 00 00 00 00 00     ................
	...
    15cc:	ff 00 00 00 00 00 00 00 00 00 00 ff ff 00 00 00     ................
    15dc:	00 00 ff 00 00 00 00 00 ff 00 00 00 00 00 ff 00     ................
    15ec:	00 00 00 00 ff 00 00 ff 00 00 ff 00 00 00 ff ff     ................
	...
    1610:	ff 00 00 00 00 00 ff 00 00 00 00 00 ff 00 00 00     ................
    1620:	ff 00 ff 00 00 ff 00 00 ff ff ff 00 00 00 ff 00     ................
    1630:	00 ff 00 00 ff 00 00 00 ff 00 00 00 00 00 00 00     ................
	...
    1658:	00 ff ff 00 00 00 00 00 ff 00 00 00 00 00 ff 00     ................
    1668:	00 00 00 00 ff 00 00 00 00 00 ff 00 00 00 00 00     ................
    1678:	ff 00 00 00 00 ff ff ff 00 00 00 00 00 00 00 00     ................
	...
    16ac:	ff ff 00 ff 00 00 ff 00 ff 00 ff 00 ff 00 ff 00     ................
    16bc:	ff 00 ff 00 ff 00 ff 00 ff 00 ff 00 ff 00 00 00     ................
	...
    16f4:	ff 00 ff ff 00 00 ff ff 00 00 ff 00 ff 00 00 00     ................
    1704:	ff 00 ff 00 00 00 ff 00 ff 00 00 00 ff 00 00 00     ................
	...
    173c:	00 ff ff ff 00 00 ff 00 00 00 ff 00 ff 00 00 00     ................
    174c:	ff 00 ff 00 00 00 ff 00 00 ff ff ff 00 00 00 00     ................
	...
    1784:	ff ff ff ff 00 00 ff 00 00 00 ff 00 ff 00 00 00     ................
    1794:	ff 00 ff 00 00 00 ff 00 ff ff ff ff 00 00 ff 00     ................
    17a4:	00 00 00 00 ff 00 00 00 00 00 00 00 00 00 00 00     ................
	...
    17cc:	00 ff ff ff ff 00 ff 00 00 00 ff 00 ff 00 00 00     ................
    17dc:	ff 00 ff 00 00 00 ff 00 00 ff ff ff ff 00 00 00     ................
    17ec:	00 00 ff 00 00 00 00 00 ff 00 00 00 00 00 00 00     ................
	...
    1814:	ff 00 ff ff 00 00 ff ff 00 00 ff 00 ff 00 00 00     ................
    1824:	00 00 ff 00 00 00 00 00 ff 00 00 00 00 00 00 00     ................
	...
    185c:	00 ff ff ff ff 00 ff 00 00 00 00 00 00 ff ff ff     ................
    186c:	00 00 00 00 00 00 ff 00 ff ff ff ff 00 00 00 00     ................
	...
    1898:	00 00 ff 00 00 00 00 00 ff 00 00 00 ff ff ff ff     ................
    18a8:	ff 00 00 00 ff 00 00 00 00 00 ff 00 00 00 00 00     ................
    18b8:	ff 00 00 00 00 00 00 ff ff 00 00 00 00 00 00 00     ................
	...
    18ec:	ff 00 00 00 ff 00 ff 00 00 00 ff 00 ff 00 00 00     ................
    18fc:	ff 00 ff 00 00 ff ff 00 00 ff ff 00 ff 00 00 00     ................
	...
    1934:	ff 00 00 00 ff 00 ff 00 00 00 ff 00 ff 00 00 00     ................
    1944:	ff 00 00 ff 00 ff 00 00 00 00 ff 00 00 00 00 00     ................
	...
    197c:	ff 00 00 00 ff 00 ff 00 00 00 ff 00 ff 00 ff 00     ................
    198c:	ff 00 ff 00 ff 00 ff 00 00 ff 00 ff 00 00 00 00     ................
	...
    19c4:	ff 00 00 00 ff 00 00 ff 00 ff 00 00 00 00 ff 00     ................
    19d4:	00 00 00 ff 00 ff 00 00 ff 00 00 00 ff 00 00 00     ................
	...
    1a0c:	ff 00 00 00 ff 00 ff 00 00 00 ff 00 ff 00 00 00     ................
    1a1c:	ff 00 00 ff 00 ff 00 00 00 00 ff 00 00 00 00 ff     ................
    1a2c:	00 00 00 00 ff 00 00 00 00 00 00 00 00 00 00 00     ................
	...
    1a54:	ff ff ff ff ff 00 00 00 00 ff 00 00 00 00 ff 00     ................
    1a64:	00 00 00 ff 00 00 00 00 ff ff ff ff ff 00 00 00     ................
	...
    1a8c:	00 ff 00 00 00 00 ff 00 00 00 00 00 ff 00 00 00     ................
    1a9c:	00 00 ff 00 00 00 00 ff 00 00 00 00 00 00 ff 00     ................
    1aac:	00 00 00 00 ff 00 00 00 00 00 ff 00 00 00 00 00     ................
    1abc:	00 ff 00 00 00 00 00 00 00 00 00 00 00 00 00 00     ................
	...
    1ad4:	ff 00 00 00 00 00 ff 00 00 00 00 00 ff 00 00 00     ................
    1ae4:	00 00 ff 00 00 00 00 00 ff 00 00 00 00 00 ff 00     ................
    1af4:	00 00 00 00 ff 00 00 00 00 00 ff 00 00 00 00 00     ................
    1b04:	ff 00 00 00 00 00 00 00 00 00 00 00 00 00 00 00     ................
    1b14:	00 00 00 00 00 00 00 ff 00 00 00 00 00 00 ff 00     ................
    1b24:	00 00 00 00 ff 00 00 00 00 00 ff 00 00 00 00 00     ................
    1b34:	00 ff 00 00 00 00 ff 00 00 00 00 00 ff 00 00 00     ................
    1b44:	00 00 ff 00 00 00 00 ff 00 00 00 00 00 00 00 00     ................
	...
    1b74:	00 ff 00 00 ff 00 ff 00 ff 00 ff 00 ff 00 00 ff     ................
	...

00001ba4 <__c.2349>:
    1ba4:	41 72 74 65 66 61 63 74 73 00                       Artefacts.

00001bae <__c.2351>:
    1bae:	48 65 61 6c 74 68 00                                Health.

00001bb5 <__c.2353>:
    1bb5:	45 6e 65 6d 79 48 65 61 6c 74 68 00                 EnemyHealth.

00001bc1 <__c.2355>:
    1bc1:	4d 6f 6e 65 79 00 00                                Money..

00001bc8 <__ctors_end>:
    1bc8:	11 24       	eor	r1, r1
    1bca:	1f be       	out	0x3f, r1	; 63
    1bcc:	cf ef       	ldi	r28, 0xFF	; 255
    1bce:	d0 e1       	ldi	r29, 0x10	; 16
    1bd0:	de bf       	out	0x3e, r29	; 62
    1bd2:	cd bf       	out	0x3d, r28	; 61

00001bd4 <__do_copy_data>:
    1bd4:	11 e0       	ldi	r17, 0x01	; 1
    1bd6:	a0 e0       	ldi	r26, 0x00	; 0
    1bd8:	b1 e0       	ldi	r27, 0x01	; 1
    1bda:	e8 e1       	ldi	r30, 0x18	; 24
    1bdc:	ff e3       	ldi	r31, 0x3F	; 63
    1bde:	02 c0       	rjmp	.+4      	; 0x1be4 <__do_copy_data+0x10>
    1be0:	05 90       	lpm	r0, Z+
    1be2:	0d 92       	st	X+, r0
    1be4:	a6 31       	cpi	r26, 0x16	; 22
    1be6:	b1 07       	cpc	r27, r17
    1be8:	d9 f7       	brne	.-10     	; 0x1be0 <__do_copy_data+0xc>

00001bea <__do_clear_bss>:
    1bea:	29 e0       	ldi	r18, 0x09	; 9
    1bec:	a6 e1       	ldi	r26, 0x16	; 22
    1bee:	b1 e0       	ldi	r27, 0x01	; 1
    1bf0:	01 c0       	rjmp	.+2      	; 0x1bf4 <.do_clear_bss_start>

00001bf2 <.do_clear_bss_loop>:
    1bf2:	1d 92       	st	X+, r1

00001bf4 <.do_clear_bss_start>:
    1bf4:	a8 3b       	cpi	r26, 0xB8	; 184
    1bf6:	b2 07       	cpc	r27, r18
    1bf8:	e1 f7       	brne	.-8      	; 0x1bf2 <.do_clear_bss_loop>

00001bfa <wdt_init>:
	  if (j == count) {
		 WriteEeprom(i*EEPROM_BLOCK_SIZE,(u8)EEPROM_FREE_BLOCK);
		 WriteEeprom(i*EEPROM_BLOCK_SIZE+1,(u8)(EEPROM_FREE_BLOCK>>8));
	  }
   }
}
    1bfa:	14 be       	out	0x34, r1	; 52
    1bfc:	0f b6       	in	r0, 0x3f	; 63
    1bfe:	f8 94       	cli
    1c00:	a8 95       	wdr
    1c02:	80 91 60 00 	lds	r24, 0x0060	; 0x800060 <__DATA_REGION_ORIGIN__>
    1c06:	88 61       	ori	r24, 0x18	; 24
    1c08:	80 93 60 00 	sts	0x0060, r24	; 0x800060 <__DATA_REGION_ORIGIN__>
    1c0c:	10 92 60 00 	sts	0x0060, r1	; 0x800060 <__DATA_REGION_ORIGIN__>
    1c10:	0f be       	out	0x3f, r0	; 63

00001c12 <Initialize>:
    1c12:	f8 94       	cli
    1c14:	80 e9       	ldi	r24, 0x90	; 144
    1c16:	90 e0       	ldi	r25, 0x00	; 0
    1c18:	42 ec       	ldi	r20, 0xC2	; 194
    1c1a:	50 e0       	ldi	r21, 0x00	; 0
    1c1c:	fc 01       	movw	r30, r24
    1c1e:	25 91       	lpm	r18, Z+
    1c20:	34 91       	lpm	r19, Z
    1c22:	f9 01       	movw	r30, r18
    1c24:	ff 27       	eor	r31, r31
    1c26:	30 83       	st	Z, r19
    1c28:	02 96       	adiw	r24, 0x02	; 2
    1c2a:	48 17       	cp	r20, r24
    1c2c:	59 07       	cpc	r21, r25
    1c2e:	b1 f7       	brne	.-20     	; 0x1c1c <Initialize+0xa>
    1c30:	0e 94 6d 11 	call	0x22da	; 0x22da <isEepromFormatted>
    1c34:	81 11       	cpse	r24, r1
    1c36:	02 c0       	rjmp	.+4      	; 0x1c3c <Initialize+0x2a>
    1c38:	0e 94 4b 11 	call	0x2296	; 0x2296 <FormatEeprom>
    1c3c:	e3 e0       	ldi	r30, 0x03	; 3
    1c3e:	f7 e0       	ldi	r31, 0x07	; 7
    1c40:	80 e8       	ldi	r24, 0x80	; 128
    1c42:	81 93       	st	Z+, r24
    1c44:	99 e0       	ldi	r25, 0x09	; 9
    1c46:	ef 30       	cpi	r30, 0x0F	; 15
    1c48:	f9 07       	cpc	r31, r25
    1c4a:	d9 f7       	brne	.-10     	; 0x1c42 <Initialize+0x30>
    1c4c:	83 e0       	ldi	r24, 0x03	; 3
    1c4e:	97 e0       	ldi	r25, 0x07	; 7
    1c50:	90 93 10 09 	sts	0x0910, r25	; 0x800910 <mix_pos+0x1>
    1c54:	80 93 0f 09 	sts	0x090F, r24	; 0x80090f <mix_pos>
    1c58:	10 92 11 09 	sts	0x0911, r1	; 0x800911 <mix_bank>
    1c5c:	81 e0       	ldi	r24, 0x01	; 1
    1c5e:	80 93 28 09 	sts	0x0928, r24	; 0x800928 <tr4_barrel_lo>
    1c62:	80 93 29 09 	sts	0x0929, r24	; 0x800929 <tr4_barrel_hi>
    1c66:	80 93 27 09 	sts	0x0927, r24	; 0x800927 <tr4_params>
    1c6a:	10 92 14 09 	sts	0x0914, r1	; 0x800914 <mixer>
    1c6e:	10 92 1a 09 	sts	0x091A, r1	; 0x80091a <tr2_vol>
    1c72:	10 92 20 09 	sts	0x0920, r1	; 0x800920 <tr3_vol>
    1c76:	10 92 26 09 	sts	0x0926, r1	; 0x800926 <tr4_vol>
    1c7a:	10 92 ee 06 	sts	0x06EE, r1	; 0x8006ee <sync_phase>
    1c7e:	10 92 f0 06 	sts	0x06F0, r1	; 0x8006f0 <sync_flags>
    1c82:	92 e1       	ldi	r25, 0x12	; 18
    1c84:	90 93 ef 06 	sts	0x06EF, r25	; 0x8006ef <sync_pulse>
    1c88:	98 ed       	ldi	r25, 0xD8	; 216
    1c8a:	90 93 f6 06 	sts	0x06F6, r25	; 0x8006f6 <render_lines_count>
    1c8e:	94 e1       	ldi	r25, 0x14	; 20
    1c90:	90 93 f5 06 	sts	0x06F5, r25	; 0x8006f5 <first_render_line>
    1c94:	10 92 fa 06 	sts	0x06FA, r1	; 0x8006fa <joypad1_status_hi+0x1>
    1c98:	10 92 f9 06 	sts	0x06F9, r1	; 0x8006f9 <joypad1_status_hi>
    1c9c:	10 92 fe 06 	sts	0x06FE, r1	; 0x8006fe <joypad2_status_hi+0x1>
    1ca0:	10 92 fd 06 	sts	0x06FD, r1	; 0x8006fd <joypad2_status_hi>
    1ca4:	80 93 13 09 	sts	0x0913, r24	; 0x800913 <sound_enabled>
    1ca8:	0e 94 81 1a 	call	0x3502	; 0x3502 <InitializeVideoMode>
    1cac:	78 94       	sei
    1cae:	0e 94 80 1a 	call	0x3500	; 0x3500 <DisplayLogo>
    1cb2:	0e 94 28 1b 	call	0x3650	; 0x3650 <main>
    1cb6:	0c 94 8a 1f 	jmp	0x3f14	; 0x3f14 <_exit>

00001cba <__bad_interrupt>:
    1cba:	0c 94 00 00 	jmp	0	; 0x0 <__vectors>

00001cbe <sub_video_mode1>:
	brne .-4 ;~1 us
	nop
	sbiw r24,1
	brne WaitUs

	ret
    1cbe:	30 e0       	ldi	r19, 0x00	; 0
    1cc0:	3a 95       	dec	r19
    1cc2:	f1 f7       	brne	.-4      	; 0x1cc0 <sub_video_mode1+0x2>
    1cc4:	31 ec       	ldi	r19, 0xC1	; 193
    1cc6:	3a 95       	dec	r19
    1cc8:	f1 f7       	brne	.-4      	; 0x1cc6 <sub_video_mode1+0x8>
    1cca:	c6 e1       	ldi	r28, 0x16	; 22
    1ccc:	d1 e0       	ldi	r29, 0x01	; 1
    1cce:	08 ed       	ldi	r16, 0xD8	; 216
    1cd0:	a0 2e       	mov	r10, r16
    1cd2:	66 27       	eor	r22, r22
    1cd4:	76 e0       	ldi	r23, 0x06	; 6

00001cd6 <next_tile_line>:
    1cd6:	2d d1       	rcall	.+602    	; 0x1f32 <hsync_pulse>
    1cd8:	3b e2       	ldi	r19, 0x2B	; 43
    1cda:	3a 95       	dec	r19
    1cdc:	f1 f7       	brne	.-4      	; 0x1cda <next_tile_line+0x4>
    1cde:	0e 94 97 0e 	call	0x1d2e	; 0x1d2e <render_tile_line>
    1ce2:	31 e1       	ldi	r19, 0x11	; 17
    1ce4:	3a 95       	dec	r19
    1ce6:	f1 f7       	brne	.-4      	; 0x1ce4 <next_tile_line+0xe>
    1ce8:	aa 94       	dec	r10
    1cea:	89 f0       	breq	.+34     	; 0x1d0e <frame_end>
    1cec:	c8 95       	lpm
    1cee:	63 95       	inc	r22
    1cf0:	6c 30       	cpi	r22, 0x0C	; 12
    1cf2:	29 f0       	breq	.+10     	; 0x1cfe <next_tile_row>
    1cf4:	33 e0       	ldi	r19, 0x03	; 3
    1cf6:	3a 95       	dec	r19
    1cf8:	f1 f7       	brne	.-4      	; 0x1cf6 <next_tile_line+0x20>
    1cfa:	00 00       	nop
    1cfc:	ec cf       	rjmp	.-40     	; 0x1cd6 <next_tile_line>

00001cfe <next_tile_row>:
    1cfe:	66 27       	eor	r22, r22
    1d00:	00 24       	eor	r0, r0
    1d02:	30 e5       	ldi	r19, 0x50	; 80
    1d04:	c3 0f       	add	r28, r19
    1d06:	d0 1d       	adc	r29, r0
    1d08:	c8 95       	lpm
    1d0a:	00 00       	nop
    1d0c:	e4 cf       	rjmp	.-56     	; 0x1cd6 <next_tile_line>

00001d0e <frame_end>:
    1d0e:	35 e0       	ldi	r19, 0x05	; 5
    1d10:	3a 95       	dec	r19
    1d12:	f1 f7       	brne	.-4      	; 0x1d10 <frame_end+0x2>
    1d14:	00 c0       	rjmp	.+0      	; 0x1d16 <frame_end+0x8>
    1d16:	0d d1       	rcall	.+538    	; 0x1f32 <hsync_pulse>
    1d18:	e0 91 f0 06 	lds	r30, 0x06F0	; 0x8006f0 <sync_flags>
    1d1c:	42 e0       	ldi	r20, 0x02	; 2
    1d1e:	e4 27       	eor	r30, r20
    1d20:	e1 60       	ori	r30, 0x01	; 1
    1d22:	e0 93 f0 06 	sts	0x06F0, r30	; 0x8006f0 <sync_flags>
    1d26:	e2 e0       	ldi	r30, 0x02	; 2
    1d28:	e0 93 36 00 	sts	0x0036, r30	; 0x800036 <__TEXT_REGION_LENGTH__+0x7e0036>
    1d2c:	08 95       	ret

00001d2e <render_tile_line>:
    1d2e:	de 01       	movw	r26, r28
    1d30:	4d 91       	ld	r20, X+
    1d32:	5d 91       	ld	r21, X+
    1d34:	67 9f       	mul	r22, r23
    1d36:	c0 01       	movw	r24, r0
    1d38:	48 0f       	add	r20, r24
    1d3a:	59 1f       	adc	r21, r25
    1d3c:	fa 01       	movw	r30, r20
    1d3e:	28 e2       	ldi	r18, 0x28	; 40

00001d40 <mode1_loop>:
    1d40:	05 91       	lpm	r16, Z+
    1d42:	08 b9       	out	0x08, r16	; 8
    1d44:	4d 91       	ld	r20, X+
    1d46:	05 91       	lpm	r16, Z+
    1d48:	08 b9       	out	0x08, r16	; 8
    1d4a:	5d 91       	ld	r21, X+
    1d4c:	05 91       	lpm	r16, Z+
    1d4e:	08 b9       	out	0x08, r16	; 8
    1d50:	00 c0       	rjmp	.+0      	; 0x1d52 <mode1_loop+0x12>
    1d52:	05 91       	lpm	r16, Z+
    1d54:	08 b9       	out	0x08, r16	; 8
    1d56:	48 0f       	add	r20, r24
    1d58:	59 1f       	adc	r21, r25
    1d5a:	05 91       	lpm	r16, Z+
    1d5c:	08 b9       	out	0x08, r16	; 8
    1d5e:	05 91       	lpm	r16, Z+
    1d60:	fa 01       	movw	r30, r20
    1d62:	2a 95       	dec	r18
    1d64:	08 b9       	out	0x08, r16	; 8
    1d66:	61 f7       	brne	.-40     	; 0x1d40 <mode1_loop>
    1d68:	c8 95       	lpm
    1d6a:	00 27       	eor	r16, r16
    1d6c:	08 b9       	out	0x08, r16	; 8
    1d6e:	08 95       	ret

00001d70 <__vector_13>:
    1d70:	0f 92       	push	r0
    1d72:	1f 92       	push	r1
    1d74:	ef 93       	push	r30
    1d76:	ff 93       	push	r31
    1d78:	ff b7       	in	r31, 0x3f	; 63
    1d7a:	e0 91 84 00 	lds	r30, 0x0084	; 0x800084 <__DATA_REGION_ORIGIN__+0x24>
    1d7e:	ff 93       	push	r31
    1d80:	e2 fd       	sbrc	r30, 2
    1d82:	04 c0       	rjmp	.+8      	; 0x1d8c <__vector_13+0x1c>
    1d84:	e1 fd       	sbrc	r30, 1
    1d86:	02 c0       	rjmp	.+4      	; 0x1d8c <__vector_13+0x1c>
    1d88:	00 00       	nop
    1d8a:	00 c0       	rjmp	.+0      	; 0x1d8c <__vector_13+0x1c>
    1d8c:	e0 ff       	sbrs	r30, 0
    1d8e:	00 c0       	rjmp	.+0      	; 0x1d90 <__vector_13+0x20>
    1d90:	e0 91 ef 06 	lds	r30, 0x06EF	; 0x8006ef <sync_pulse>
    1d94:	ea 95       	dec	r30
    1d96:	e0 93 ef 06 	sts	0x06EF, r30	; 0x8006ef <sync_pulse>
    1d9a:	f0 91 ee 06 	lds	r31, 0x06EE	; 0x8006ee <sync_phase>
    1d9e:	f0 fd       	sbrc	r31, 0
    1da0:	51 c0       	rjmp	.+162    	; 0x1e44 <sync_hsync>
    1da2:	ec 30       	cpi	r30, 0x0C	; 12
    1da4:	98 f0       	brcs	.+38     	; 0x1dcc <sync_eq>
    1da6:	f3 e0       	ldi	r31, 0x03	; 3
    1da8:	f0 93 89 00 	sts	0x0089, r31	; 0x800089 <__DATA_REGION_ORIGIN__+0x29>
    1dac:	fd e8       	ldi	r31, 0x8D	; 141
    1dae:	f0 93 88 00 	sts	0x0088, r31	; 0x800088 <__DATA_REGION_ORIGIN__+0x28>
    1db2:	e0 fb       	bst	r30, 0
    1db4:	28 98       	cbi	0x05, 0	; 5
    1db6:	26 f4       	brtc	.+8      	; 0x1dc0 <sync_pre_eq_no_sound_update>
    1db8:	e1 e0       	ldi	r30, 0x01	; 1
    1dba:	0e 94 7a 10 	call	0x20f4	; 0x20f4 <update_sound>
    1dbe:	b2 c0       	rjmp	.+356    	; 0x1f24 <sync_end>

00001dc0 <sync_pre_eq_no_sound_update>:
    1dc0:	e5 e1       	ldi	r30, 0x15	; 21
    1dc2:	ea 95       	dec	r30
    1dc4:	f1 f7       	brne	.-4      	; 0x1dc2 <sync_pre_eq_no_sound_update+0x2>
    1dc6:	00 00       	nop
    1dc8:	28 9a       	sbi	0x05, 0	; 5
    1dca:	ac c0       	rjmp	.+344    	; 0x1f24 <sync_end>

00001dcc <sync_eq>:
    1dcc:	e6 30       	cpi	r30, 0x06	; 6
    1dce:	08 f1       	brcs	.+66     	; 0x1e12 <sync_post_eq>
    1dd0:	00 c0       	rjmp	.+0      	; 0x1dd2 <sync_eq+0x6>
    1dd2:	00 c0       	rjmp	.+0      	; 0x1dd4 <sync_eq+0x8>
    1dd4:	28 98       	cbi	0x05, 0	; 5
    1dd6:	e0 fb       	bst	r30, 0
    1dd8:	e4 e0       	ldi	r30, 0x04	; 4
    1dda:	16 f4       	brtc	.+4      	; 0x1de0 <sync_eq_skip>
    1ddc:	0e 94 7a 10 	call	0x20f4	; 0x20f4 <update_sound>

00001de0 <sync_eq_skip>:
    1de0:	e4 e0       	ldi	r30, 0x04	; 4
    1de2:	e0 93 36 00 	sts	0x0036, r30	; 0x800036 <__TEXT_REGION_LENGTH__+0x7e0036>
    1de6:	e6 e0       	ldi	r30, 0x06	; 6
    1de8:	e0 93 6f 00 	sts	0x006F, r30	; 0x80006f <__DATA_REGION_ORIGIN__+0xf>
    1dec:	9b c0       	rjmp	.+310    	; 0x1f24 <sync_end>

00001dee <__vector_14>:
    1dee:	ef 93       	push	r30
    1df0:	e0 91 84 00 	lds	r30, 0x0084	; 0x800084 <__DATA_REGION_ORIGIN__+0x24>
    1df4:	e2 fd       	sbrc	r30, 2
    1df6:	04 c0       	rjmp	.+8      	; 0x1e00 <__vector_14+0x12>
    1df8:	e1 fd       	sbrc	r30, 1
    1dfa:	02 c0       	rjmp	.+4      	; 0x1e00 <__vector_14+0x12>
    1dfc:	00 00       	nop
    1dfe:	00 c0       	rjmp	.+0      	; 0x1e00 <__vector_14+0x12>
    1e00:	e0 ff       	sbrs	r30, 0
    1e02:	00 c0       	rjmp	.+0      	; 0x1e04 <__vector_14+0x16>
    1e04:	e2 e0       	ldi	r30, 0x02	; 2
    1e06:	00 00       	nop
    1e08:	28 9a       	sbi	0x05, 0	; 5
    1e0a:	e0 93 6f 00 	sts	0x006F, r30	; 0x80006f <__DATA_REGION_ORIGIN__+0xf>
    1e0e:	ef 91       	pop	r30
    1e10:	18 95       	reti

00001e12 <sync_post_eq>:
    1e12:	00 c0       	rjmp	.+0      	; 0x1e14 <sync_post_eq+0x2>
    1e14:	e0 fb       	bst	r30, 0
    1e16:	28 98       	cbi	0x05, 0	; 5
    1e18:	26 f4       	brtc	.+8      	; 0x1e22 <sync_post_eq_no_sound_update>
    1e1a:	e1 e0       	ldi	r30, 0x01	; 1
    1e1c:	0e 94 7a 10 	call	0x20f4	; 0x20f4 <update_sound>
    1e20:	05 c0       	rjmp	.+10     	; 0x1e2c <sync_pre_eq_cont>

00001e22 <sync_post_eq_no_sound_update>:
    1e22:	e5 e1       	ldi	r30, 0x15	; 21
    1e24:	ea 95       	dec	r30
    1e26:	f1 f7       	brne	.-4      	; 0x1e24 <sync_post_eq_no_sound_update+0x2>
    1e28:	00 00       	nop
    1e2a:	28 9a       	sbi	0x05, 0	; 5

00001e2c <sync_pre_eq_cont>:
    1e2c:	e0 91 ef 06 	lds	r30, 0x06EF	; 0x8006ef <sync_pulse>
    1e30:	e0 30       	cpi	r30, 0x00	; 0
    1e32:	09 f0       	breq	.+2      	; 0x1e36 <sync_pre_eq_cont+0xa>
    1e34:	77 c0       	rjmp	.+238    	; 0x1f24 <sync_end>
    1e36:	ed ef       	ldi	r30, 0xFD	; 253
    1e38:	e0 93 ef 06 	sts	0x06EF, r30	; 0x8006ef <sync_pulse>
    1e3c:	e1 e0       	ldi	r30, 0x01	; 1
    1e3e:	e0 93 ee 06 	sts	0x06EE, r30	; 0x8006ee <sync_phase>
    1e42:	70 c0       	rjmp	.+224    	; 0x1f24 <sync_end>

00001e44 <sync_hsync>:
    1e44:	e7 e0       	ldi	r30, 0x07	; 7
    1e46:	e0 93 89 00 	sts	0x0089, r30	; 0x800089 <__DATA_REGION_ORIGIN__+0x29>
    1e4a:	eb e1       	ldi	r30, 0x1B	; 27
    1e4c:	e0 93 88 00 	sts	0x0088, r30	; 0x800088 <__DATA_REGION_ORIGIN__+0x28>
    1e50:	00 c0       	rjmp	.+0      	; 0x1e52 <sync_hsync+0xe>
    1e52:	28 98       	cbi	0x05, 0	; 5
    1e54:	e2 e0       	ldi	r30, 0x02	; 2
    1e56:	00 c0       	rjmp	.+0      	; 0x1e58 <sync_hsync+0x14>
    1e58:	0e 94 7a 10 	call	0x20f4	; 0x20f4 <update_sound>
    1e5c:	fd ef       	ldi	r31, 0xFD	; 253
    1e5e:	00 90 f5 06 	lds	r0, 0x06F5	; 0x8006f5 <first_render_line>
    1e62:	f0 19       	sub	r31, r0
    1e64:	e0 91 ef 06 	lds	r30, 0x06EF	; 0x8006ef <sync_pulse>
    1e68:	ef 17       	cp	r30, r31
    1e6a:	d8 f4       	brcc	.+54     	; 0x1ea2 <no_render>
    1e6c:	fd ef       	ldi	r31, 0xFD	; 253
    1e6e:	00 90 f5 06 	lds	r0, 0x06F5	; 0x8006f5 <first_render_line>
    1e72:	f0 19       	sub	r31, r0
    1e74:	00 90 f6 06 	lds	r0, 0x06F6	; 0x8006f6 <render_lines_count>
    1e78:	f0 19       	sub	r31, r0
    1e7a:	ef 17       	cp	r30, r31
    1e7c:	90 f0       	brcs	.+36     	; 0x1ea2 <no_render>
    1e7e:	ed e1       	ldi	r30, 0x1D	; 29
    1e80:	ff 27       	eor	r31, r31

00001e82 <push_loop>:
    1e82:	00 80       	ld	r0, Z
    1e84:	0f 92       	push	r0
    1e86:	ea 95       	dec	r30
    1e88:	e1 f7       	brne	.-8      	; 0x1e82 <push_loop>
    1e8a:	0f e1       	ldi	r16, 0x1F	; 31
    1e8c:	0a 95       	dec	r16
    1e8e:	f1 f7       	brne	.-4      	; 0x1e8c <push_loop+0xa>
    1e90:	00 c0       	rjmp	.+0      	; 0x1e92 <push_loop+0x10>
    1e92:	0e 94 5f 0e 	call	0x1cbe	; 0x1cbe <sub_video_mode1>
    1e96:	e1 e0       	ldi	r30, 0x01	; 1
    1e98:	ff 27       	eor	r31, r31

00001e9a <pop_loop>:
    1e9a:	0f 90       	pop	r0
    1e9c:	01 92       	st	Z+, r0
    1e9e:	ee 31       	cpi	r30, 0x1E	; 30
    1ea0:	e0 f3       	brcs	.-8      	; 0x1e9a <pop_loop>

00001ea2 <no_render>:
    1ea2:	e0 91 ef 06 	lds	r30, 0x06EF	; 0x8006ef <sync_pulse>
    1ea6:	e0 30       	cpi	r30, 0x00	; 0
    1ea8:	09 f0       	breq	.+2      	; 0x1eac <no_render+0xa>
    1eaa:	3c c0       	rjmp	.+120    	; 0x1f24 <sync_end>
    1eac:	2f 93       	push	r18
    1eae:	3f 93       	push	r19
    1eb0:	4f 93       	push	r20
    1eb2:	5f 93       	push	r21
    1eb4:	6f 93       	push	r22
    1eb6:	7f 93       	push	r23
    1eb8:	8f 93       	push	r24
    1eba:	9f 93       	push	r25
    1ebc:	af 93       	push	r26
    1ebe:	bf 93       	push	r27
    1ec0:	78 94       	sei
    1ec2:	11 24       	eor	r1, r1
    1ec4:	ee 27       	eor	r30, r30
    1ec6:	e0 93 ee 06 	sts	0x06EE, r30	; 0x8006ee <sync_phase>
    1eca:	e2 e1       	ldi	r30, 0x12	; 18
    1ecc:	e0 93 ef 06 	sts	0x06EF, r30	; 0x8006ef <sync_pulse>
    1ed0:	80 91 ff 06 	lds	r24, 0x06FF	; 0x8006ff <vsync_counter>
    1ed4:	90 91 00 07 	lds	r25, 0x0700	; 0x800700 <vsync_counter+0x1>
    1ed8:	01 96       	adiw	r24, 0x01	; 1
    1eda:	80 93 ff 06 	sts	0x06FF, r24	; 0x8006ff <vsync_counter>
    1ede:	90 93 00 07 	sts	0x0700, r25	; 0x800700 <vsync_counter+0x1>
    1ee2:	e0 91 f1 06 	lds	r30, 0x06F1	; 0x8006f1 <pre_vsync_user_callback>
    1ee6:	f0 91 f2 06 	lds	r31, 0x06F2	; 0x8006f2 <pre_vsync_user_callback+0x1>
    1eea:	e1 15       	cp	r30, r1
    1eec:	f1 05       	cpc	r31, r1
    1eee:	09 f0       	breq	.+2      	; 0x1ef2 <no_render+0x50>
    1ef0:	09 95       	icall
    1ef2:	0e 94 3b 11 	call	0x2276	; 0x2276 <ReadControllers>
    1ef6:	0e 94 82 1a 	call	0x3504	; 0x3504 <VideoModeVsync>
    1efa:	0e 94 a4 0f 	call	0x1f48	; 0x1f48 <process_music>
    1efe:	11 24       	eor	r1, r1
    1f00:	e0 91 f3 06 	lds	r30, 0x06F3	; 0x8006f3 <post_vsync_user_callback>
    1f04:	f0 91 f4 06 	lds	r31, 0x06F4	; 0x8006f4 <post_vsync_user_callback+0x1>
    1f08:	e1 15       	cp	r30, r1
    1f0a:	f1 05       	cpc	r31, r1
    1f0c:	09 f0       	breq	.+2      	; 0x1f10 <no_render+0x6e>
    1f0e:	09 95       	icall
    1f10:	bf 91       	pop	r27
    1f12:	af 91       	pop	r26
    1f14:	9f 91       	pop	r25
    1f16:	8f 91       	pop	r24
    1f18:	7f 91       	pop	r23
    1f1a:	6f 91       	pop	r22
    1f1c:	5f 91       	pop	r21
    1f1e:	4f 91       	pop	r20
    1f20:	3f 91       	pop	r19
    1f22:	2f 91       	pop	r18

00001f24 <sync_end>:
    1f24:	ef 91       	pop	r30
    1f26:	ef bf       	out	0x3f, r30	; 63
    1f28:	ff 91       	pop	r31
    1f2a:	ef 91       	pop	r30
    1f2c:	1f 90       	pop	r1
    1f2e:	0f 90       	pop	r0
    1f30:	18 95       	reti

00001f32 <hsync_pulse>:
    1f32:	28 98       	cbi	0x05, 0	; 5
    1f34:	e2 e0       	ldi	r30, 0x02	; 2
    1f36:	00 c0       	rjmp	.+0      	; 0x1f38 <hsync_pulse+0x6>
    1f38:	0e 94 7a 10 	call	0x20f4	; 0x20f4 <update_sound>
    1f3c:	e0 91 ef 06 	lds	r30, 0x06EF	; 0x8006ef <sync_pulse>
    1f40:	ea 95       	dec	r30
    1f42:	e0 93 ef 06 	sts	0x06EF, r30	; 0x8006ef <sync_pulse>
    1f46:	08 95       	ret

00001f48 <process_music>:
	andi r25,1
	lsl r24
	or r24,r25

	sts tr4_params,r24	
	ret
    1f48:	e0 91 13 09 	lds	r30, 0x0913	; 0x800913 <sound_enabled>
    1f4c:	e0 fd       	sbrc	r30, 0
    1f4e:	0e 94 30 12 	call	0x2460	; 0x2460 <ProcessMusic>
    1f52:	00 90 11 09 	lds	r0, 0x0911	; 0x800911 <mix_bank>
    1f56:	00 20       	and	r0, r0
    1f58:	19 f4       	brne	.+6      	; 0x1f60 <set_hi_bank>
    1f5a:	a3 e0       	ldi	r26, 0x03	; 3
    1f5c:	b7 e0       	ldi	r27, 0x07	; 7
    1f5e:	02 c0       	rjmp	.+4      	; 0x1f64 <end_set_bank>

00001f60 <set_hi_bank>:
    1f60:	a9 e0       	ldi	r26, 0x09	; 9
    1f62:	b8 e0       	ldi	r27, 0x08	; 8

00001f64 <end_set_bank>:
    1f64:	21 e0       	ldi	r18, 0x01	; 1
    1f66:	02 26       	eor	r0, r18
    1f68:	00 92 11 09 	sts	0x0911, r0	; 0x800911 <mix_bank>
    1f6c:	22 e0       	ldi	r18, 0x02	; 2
    1f6e:	20 93 12 09 	sts	0x0912, r18	; 0x800912 <mix_block>
    1f72:	e0 91 13 09 	lds	r30, 0x0913	; 0x800913 <sound_enabled>
    1f76:	e0 ff       	sbrs	r30, 0
    1f78:	08 95       	ret
    1f7a:	2f 92       	push	r2
    1f7c:	3f 92       	push	r3
    1f7e:	4f 92       	push	r4
    1f80:	5f 92       	push	r5
    1f82:	6f 92       	push	r6
    1f84:	7f 92       	push	r7
    1f86:	8f 92       	push	r8
    1f88:	9f 92       	push	r9
    1f8a:	af 92       	push	r10
    1f8c:	bf 92       	push	r11
    1f8e:	cf 92       	push	r12
    1f90:	df 92       	push	r13
    1f92:	ef 92       	push	r14
    1f94:	ff 92       	push	r15
    1f96:	0f 93       	push	r16
    1f98:	1f 93       	push	r17
    1f9a:	cf 93       	push	r28
    1f9c:	df 93       	push	r29
    1f9e:	50 91 26 09 	lds	r21, 0x0926	; 0x800926 <tr4_vol>
    1fa2:	60 91 28 09 	lds	r22, 0x0928	; 0x800928 <tr4_barrel_lo>
    1fa6:	70 91 29 09 	lds	r23, 0x0929	; 0x800929 <tr4_barrel_hi>
    1faa:	80 91 2a 09 	lds	r24, 0x092A	; 0x80092a <tr4_divider>
    1fae:	20 90 15 09 	lds	r2, 0x0915	; 0x800915 <tr1_step_lo>
    1fb2:	30 90 16 09 	lds	r3, 0x0916	; 0x800916 <tr1_step_hi>
    1fb6:	40 90 18 09 	lds	r4, 0x0918	; 0x800918 <tr1_pos_lo>
    1fba:	50 90 19 09 	lds	r5, 0x0919	; 0x800919 <tr1_pos_hi>
    1fbe:	60 90 17 09 	lds	r6, 0x0917	; 0x800917 <tr1_pos_frac>
    1fc2:	10 91 14 09 	lds	r17, 0x0914	; 0x800914 <mixer>
    1fc6:	70 90 1b 09 	lds	r7, 0x091B	; 0x80091b <tr2_step_lo>
    1fca:	80 90 1c 09 	lds	r8, 0x091C	; 0x80091c <tr2_step_hi>
    1fce:	90 90 1d 09 	lds	r9, 0x091D	; 0x80091d <tr2_pos_frac>
    1fd2:	a0 90 1e 09 	lds	r10, 0x091E	; 0x80091e <tr2_pos_lo>
    1fd6:	b0 90 1f 09 	lds	r11, 0x091F	; 0x80091f <tr2_pos_hi>
    1fda:	20 91 1a 09 	lds	r18, 0x091A	; 0x80091a <tr2_vol>
    1fde:	c0 90 21 09 	lds	r12, 0x0921	; 0x800921 <tr3_step_lo>
    1fe2:	d0 90 22 09 	lds	r13, 0x0922	; 0x800922 <tr3_step_hi>
    1fe6:	e0 90 24 09 	lds	r14, 0x0924	; 0x800924 <tr3_pos_lo>
    1fea:	f0 90 25 09 	lds	r15, 0x0925	; 0x800925 <tr3_pos_hi>
    1fee:	00 91 23 09 	lds	r16, 0x0923	; 0x800923 <tr3_pos_frac>
    1ff2:	30 91 20 09 	lds	r19, 0x0920	; 0x800920 <tr3_vol>
    1ff6:	9f ef       	ldi	r25, 0xFF	; 255

00001ff8 <mix_loop>:
    1ff8:	62 0c       	add	r6, r2
    1ffa:	43 1c       	adc	r4, r3
    1ffc:	f2 01       	movw	r30, r4
    1ffe:	44 91       	lpm	r20, Z
    2000:	41 03       	mulsu	r20, r17
    2002:	00 08       	sbc	r0, r0
    2004:	c1 2d       	mov	r28, r1
    2006:	d0 2d       	mov	r29, r0
    2008:	97 0c       	add	r9, r7
    200a:	a8 1c       	adc	r10, r8
    200c:	f5 01       	movw	r30, r10
    200e:	44 91       	lpm	r20, Z
    2010:	42 03       	mulsu	r20, r18
    2012:	00 08       	sbc	r0, r0
    2014:	c1 0d       	add	r28, r1
    2016:	d0 1d       	adc	r29, r0
    2018:	0c 0d       	add	r16, r12
    201a:	ed 1c       	adc	r14, r13
    201c:	f7 01       	movw	r30, r14
    201e:	44 91       	lpm	r20, Z
    2020:	43 03       	mulsu	r20, r19
    2022:	00 08       	sbc	r0, r0
    2024:	c1 0d       	add	r28, r1
    2026:	d0 1d       	adc	r29, r0
    2028:	8a 95       	dec	r24
    202a:	6a f4       	brpl	.+26     	; 0x2046 <no_shift>
    202c:	40 91 27 09 	lds	r20, 0x0927	; 0x800927 <tr4_params>
    2030:	84 2f       	mov	r24, r20
    2032:	86 95       	lsr	r24
    2034:	06 2e       	mov	r0, r22
    2036:	06 94       	lsr	r0
    2038:	06 26       	eor	r0, r22
    203a:	00 fa       	bst	r0, 0
    203c:	76 95       	lsr	r23
    203e:	67 95       	ror	r22
    2040:	76 f9       	bld	r23, 6
    2042:	40 ff       	sbrs	r20, 0
    2044:	66 f9       	bld	r22, 6

00002046 <no_shift>:
    2046:	40 e8       	ldi	r20, 0x80	; 128
    2048:	60 fd       	sbrc	r22, 0
    204a:	4f e7       	ldi	r20, 0x7F	; 127
    204c:	45 03       	mulsu	r20, r21
    204e:	00 08       	sbc	r0, r0
    2050:	c1 0d       	add	r28, r1
    2052:	d0 1d       	adc	r29, r0
    2054:	00 24       	eor	r0, r0
    2056:	c0 38       	cpi	r28, 0x80	; 128
    2058:	d0 05       	cpc	r29, r0
    205a:	0c f0       	brlt	.+2      	; 0x205e <no_shift+0x18>
    205c:	cf e7       	ldi	r28, 0x7F	; 127
    205e:	0a 94       	dec	r0
    2060:	c0 38       	cpi	r28, 0x80	; 128
    2062:	d0 05       	cpc	r29, r0
    2064:	0c f4       	brge	.+2      	; 0x2068 <no_shift+0x22>
    2066:	c0 e8       	ldi	r28, 0x80	; 128
    2068:	c0 58       	subi	r28, 0x80	; 128
    206a:	cd 93       	st	X+, r28
    206c:	9a 95       	dec	r25
    206e:	09 f0       	breq	.+2      	; 0x2072 <no_shift+0x2c>
    2070:	c3 cf       	rjmp	.-122    	; 0x1ff8 <mix_loop>
    2072:	40 91 12 09 	lds	r20, 0x0912	; 0x800912 <mix_block>
    2076:	4a 95       	dec	r20
    2078:	40 93 12 09 	sts	0x0912, r20	; 0x800912 <mix_block>
    207c:	97 e0       	ldi	r25, 0x07	; 7
    207e:	09 f0       	breq	.+2      	; 0x2082 <no_shift+0x3c>
    2080:	bb cf       	rjmp	.-138    	; 0x1ff8 <mix_loop>
    2082:	60 92 17 09 	sts	0x0917, r6	; 0x800917 <tr1_pos_frac>
    2086:	40 92 18 09 	sts	0x0918, r4	; 0x800918 <tr1_pos_lo>
    208a:	90 92 1d 09 	sts	0x091D, r9	; 0x80091d <tr2_pos_frac>
    208e:	a0 92 1e 09 	sts	0x091E, r10	; 0x80091e <tr2_pos_lo>
    2092:	00 93 23 09 	sts	0x0923, r16	; 0x800923 <tr3_pos_frac>
    2096:	e0 92 24 09 	sts	0x0924, r14	; 0x800924 <tr3_pos_lo>
    209a:	60 93 28 09 	sts	0x0928, r22	; 0x800928 <tr4_barrel_lo>
    209e:	70 93 29 09 	sts	0x0929, r23	; 0x800929 <tr4_barrel_hi>
    20a2:	80 93 2a 09 	sts	0x092A, r24	; 0x80092a <tr4_divider>
    20a6:	df 91       	pop	r29
    20a8:	cf 91       	pop	r28
    20aa:	1f 91       	pop	r17
    20ac:	0f 91       	pop	r16
    20ae:	ff 90       	pop	r15
    20b0:	ef 90       	pop	r14
    20b2:	df 90       	pop	r13
    20b4:	cf 90       	pop	r12
    20b6:	bf 90       	pop	r11
    20b8:	af 90       	pop	r10
    20ba:	9f 90       	pop	r9
    20bc:	8f 90       	pop	r8
    20be:	7f 90       	pop	r7
    20c0:	6f 90       	pop	r6
    20c2:	5f 90       	pop	r5
    20c4:	4f 90       	pop	r4
    20c6:	3f 90       	pop	r3
    20c8:	2f 90       	pop	r2
    20ca:	08 95       	ret

000020cc <update_sound_buffer_fast>:
    20cc:	e0 91 0f 09 	lds	r30, 0x090F	; 0x80090f <mix_pos>
    20d0:	f0 91 10 09 	lds	r31, 0x0910	; 0x800910 <mix_pos+0x1>
    20d4:	01 91       	ld	r16, Z+
    20d6:	00 00       	nop
    20d8:	00 93 b3 00 	sts	0x00B3, r16	; 0x8000b3 <__DATA_REGION_ORIGIN__+0x53>
    20dc:	09 e0       	ldi	r16, 0x09	; 9
    20de:	ef 30       	cpi	r30, 0x0F	; 15
    20e0:	f0 07       	cpc	r31, r16
    20e2:	03 e0       	ldi	r16, 0x03	; 3
    20e4:	17 e0       	ldi	r17, 0x07	; 7
    20e6:	08 f0       	brcs	.+2      	; 0x20ea <update_sound_buffer_fast+0x1e>
    20e8:	f8 01       	movw	r30, r16
    20ea:	e0 93 0f 09 	sts	0x090F, r30	; 0x80090f <mix_pos>
    20ee:	f0 93 10 09 	sts	0x0910, r31	; 0x800910 <mix_pos+0x1>
    20f2:	08 95       	ret

000020f4 <update_sound>:
    20f4:	0f 93       	push	r16
    20f6:	1f 93       	push	r17
    20f8:	2f 93       	push	r18
    20fa:	ef 93       	push	r30
    20fc:	e0 91 0f 09 	lds	r30, 0x090F	; 0x80090f <mix_pos>
    2100:	f0 91 10 09 	lds	r31, 0x0910	; 0x800910 <mix_pos+0x1>
    2104:	01 91       	ld	r16, Z+
    2106:	00 93 b3 00 	sts	0x00B3, r16	; 0x8000b3 <__DATA_REGION_ORIGIN__+0x53>
    210a:	09 e0       	ldi	r16, 0x09	; 9
    210c:	ef 30       	cpi	r30, 0x0F	; 15
    210e:	f0 07       	cpc	r31, r16
    2110:	03 e0       	ldi	r16, 0x03	; 3
    2112:	17 e0       	ldi	r17, 0x07	; 7
    2114:	08 f0       	brcs	.+2      	; 0x2118 <update_sound+0x24>
    2116:	f8 01       	movw	r30, r16
    2118:	e0 93 0f 09 	sts	0x090F, r30	; 0x80090f <mix_pos>
    211c:	f0 93 10 09 	sts	0x0910, r31	; 0x800910 <mix_pos+0x1>
    2120:	e8 e0       	ldi	r30, 0x08	; 8
    2122:	ea 95       	dec	r30
    2124:	f1 f7       	brne	.-4      	; 0x2122 <update_sound+0x2e>
    2126:	ef 91       	pop	r30
    2128:	2f 91       	pop	r18
    212a:	1f 91       	pop	r17
    212c:	0f 91       	pop	r16
    212e:	e0 fd       	sbrc	r30, 0
    2130:	28 9a       	sbi	0x05, 0	; 5
    2132:	e0 ff       	sbrs	r30, 0
    2134:	01 c0       	rjmp	.+2      	; 0x2138 <update_sound+0x44>
    2136:	08 95       	ret
    2138:	f4 e1       	ldi	r31, 0x14	; 20
    213a:	fa 95       	dec	r31
    213c:	f1 f7       	brne	.-4      	; 0x213a <update_sound+0x46>
    213e:	00 c0       	rjmp	.+0      	; 0x2140 <update_sound+0x4c>
    2140:	e1 fd       	sbrc	r30, 1
    2142:	28 9a       	sbi	0x05, 0	; 5
    2144:	e1 ff       	sbrs	r30, 1
    2146:	00 c0       	rjmp	.+0      	; 0x2148 <update_sound+0x54>
    2148:	08 95       	ret

0000214a <ClearVram>:
    214a:	ea ee       	ldi	r30, 0xEA	; 234
    214c:	f2 e0       	ldi	r31, 0x02	; 2
    214e:	a6 e1       	ldi	r26, 0x16	; 22
    2150:	b1 e0       	ldi	r27, 0x01	; 1
    2152:	60 91 ea 06 	lds	r22, 0x06EA	; 0x8006ea <font_table_lo>
    2156:	70 91 eb 06 	lds	r23, 0x06EB	; 0x8006eb <font_table_hi>

0000215a <fill_vram_loop>:
    215a:	6d 93       	st	X+, r22
    215c:	7d 93       	st	X+, r23
    215e:	31 97       	sbiw	r30, 0x01	; 1
    2160:	e1 f7       	brne	.-8      	; 0x215a <fill_vram_loop>
    2162:	11 24       	eor	r1, r1
    2164:	08 95       	ret

00002166 <SetFont>:
    2166:	99 27       	eor	r25, r25
    2168:	55 27       	eor	r21, r21
    216a:	28 e2       	ldi	r18, 0x28	; 40
    216c:	22 0f       	add	r18, r18
    216e:	62 9f       	mul	r22, r18
    2170:	88 0f       	add	r24, r24
    2172:	08 0e       	add	r0, r24
    2174:	19 1e       	adc	r1, r25
    2176:	a6 e1       	ldi	r26, 0x16	; 22
    2178:	b1 e0       	ldi	r27, 0x01	; 1
    217a:	a0 0d       	add	r26, r0
    217c:	b1 1d       	adc	r27, r1
    217e:	60 91 ea 06 	lds	r22, 0x06EA	; 0x8006ea <font_table_lo>
    2182:	70 91 eb 06 	lds	r23, 0x06EB	; 0x8006eb <font_table_hi>
    2186:	28 e4       	ldi	r18, 0x48	; 72
    2188:	42 9f       	mul	r20, r18
    218a:	60 0d       	add	r22, r0
    218c:	71 1d       	adc	r23, r1
    218e:	6d 93       	st	X+, r22
    2190:	7c 93       	st	X, r23
    2192:	11 24       	eor	r1, r1
    2194:	08 95       	ret

00002196 <SetFontTable>:
    2196:	80 93 ea 06 	sts	0x06EA, r24	; 0x8006ea <font_table_lo>
    219a:	90 93 eb 06 	sts	0x06EB, r25	; 0x8006eb <font_table_hi>
    219e:	08 95       	ret

000021a0 <GetVsyncFlag>:
    21a0:	80 91 f0 06 	lds	r24, 0x06F0	; 0x8006f0 <sync_flags>
    21a4:	81 70       	andi	r24, 0x01	; 1
    21a6:	08 95       	ret

000021a8 <ClearVsyncFlag>:
    21a8:	20 91 f0 06 	lds	r18, 0x06F0	; 0x8006f0 <sync_flags>
    21ac:	2e 7f       	andi	r18, 0xFE	; 254
    21ae:	20 93 f0 06 	sts	0x06F0, r18	; 0x8006f0 <sync_flags>
    21b2:	08 95       	ret

000021b4 <ReadJoypad>:
    21b4:	88 23       	and	r24, r24
    21b6:	29 f4       	brne	.+10     	; 0x21c2 <rj_p2>
    21b8:	80 91 f7 06 	lds	r24, 0x06F7	; 0x8006f7 <joypad1_status_lo>
    21bc:	90 91 f8 06 	lds	r25, 0x06F8	; 0x8006f8 <joypad1_status_lo+0x1>
    21c0:	08 95       	ret

000021c2 <rj_p2>:
    21c2:	80 91 fb 06 	lds	r24, 0x06FB	; 0x8006fb <joypad2_status_lo>
    21c6:	90 91 fc 06 	lds	r25, 0x06FC	; 0x8006fc <joypad2_status_lo+0x1>
    21ca:	08 95       	ret

000021cc <SoftReset>:
    21cc:	e0 e6       	ldi	r30, 0x60	; 96
    21ce:	f0 e0       	ldi	r31, 0x00	; 0
    21d0:	80 81       	ld	r24, Z
    21d2:	83 fd       	sbrc	r24, 3
    21d4:	08 95       	ret
    21d6:	88 e1       	ldi	r24, 0x18	; 24
    21d8:	98 e0       	ldi	r25, 0x08	; 8
    21da:	f8 94       	cli
    21dc:	80 83       	st	Z, r24
    21de:	90 83       	st	Z, r25
    21e0:	78 94       	sei
    21e2:	ff cf       	rjmp	.-2      	; 0x21e2 <SoftReset+0x16>

000021e4 <WriteEeprom>:
;****************************

.section .text.WriteEeprom
WriteEeprom:
   ; Wait for completion of previous write
   sbic _SFR_IO_ADDR(EECR),EEPE
    21e4:	f9 99       	sbic	0x1f, 1	; 31
   rjmp WriteEeprom
    21e6:	fe cf       	rjmp	.-4      	; 0x21e4 <WriteEeprom>
   ; Set up address (r25:r24) in address register
   out _SFR_IO_ADDR(EEARH), r25
    21e8:	92 bd       	out	0x22, r25	; 34
   out _SFR_IO_ADDR(EEARL), r24
    21ea:	81 bd       	out	0x21, r24	; 33
   ; Write data (r22) to Data Register
   out _SFR_IO_ADDR(EEDR),r22
    21ec:	60 bd       	out	0x20, r22	; 32
   cli
    21ee:	f8 94       	cli
   ; Write logical one to EEMPE
   sbi _SFR_IO_ADDR(EECR),EEMPE
    21f0:	fa 9a       	sbi	0x1f, 2	; 31
   ; Start eeprom write by setting EEPE
   sbi _SFR_IO_ADDR(EECR),EEPE
    21f2:	f9 9a       	sbi	0x1f, 1	; 31
   sei
    21f4:	78 94       	sei
   ret
    21f6:	08 95       	ret

000021f8 <ReadEeprom>:
; r24 - value read
;****************************
.section .text.ReadEeprom
ReadEeprom:
   ; Wait for completion of previous write
   sbic _SFR_IO_ADDR(EECR),EEPE
    21f8:	f9 99       	sbic	0x1f, 1	; 31
   rjmp ReadEeprom
    21fa:	fe cf       	rjmp	.-4      	; 0x21f8 <ReadEeprom>
   ; Set up address (r25:r24) in address register
   out _SFR_IO_ADDR(EEARH), r25
    21fc:	92 bd       	out	0x22, r25	; 34
   out _SFR_IO_ADDR(EEARL), r24
    21fe:	81 bd       	out	0x21, r24	; 33
   ; Start eeprom read by writing EERE
   cli
    2200:	f8 94       	cli
   sbi _SFR_IO_ADDR(EECR),EERE
    2202:	f8 9a       	sbi	0x1f, 0	; 31
   ; Read data from Data Register
   in r24,_SFR_IO_ADDR(EEDR)
    2204:	80 b5       	in	r24, 0x20	; 32
   sei
    2206:	78 94       	sei
   ret
    2208:	08 95       	ret

0000220a <ReadButtons>:
    220a:	12 9a       	sbi	0x02, 2	; 2
    220c:	c8 95       	lpm
    220e:	c8 95       	lpm
    2210:	c8 95       	lpm
    2212:	c8 95       	lpm
    2214:	12 98       	cbi	0x02, 2	; 2
    2216:	40 e1       	ldi	r20, 0x10	; 16
    2218:	80 e0       	ldi	r24, 0x00	; 0
    221a:	90 e0       	ldi	r25, 0x00	; 0
    221c:	20 e0       	ldi	r18, 0x00	; 0
    221e:	30 e0       	ldi	r19, 0x00	; 0
    2220:	36 95       	lsr	r19
    2222:	27 95       	ror	r18
    2224:	96 95       	lsr	r25
    2226:	87 95       	ror	r24
    2228:	c8 95       	lpm
    222a:	c8 95       	lpm
    222c:	c8 95       	lpm
    222e:	c8 95       	lpm
    2230:	13 98       	cbi	0x02, 3	; 2
    2232:	00 9b       	sbis	0x00, 0	; 0
    2234:	30 68       	ori	r19, 0x80	; 128
    2236:	01 9b       	sbis	0x00, 1	; 0
    2238:	90 68       	ori	r25, 0x80	; 128
    223a:	13 9a       	sbi	0x02, 3	; 2
    223c:	c8 95       	lpm
    223e:	c8 95       	lpm
    2240:	c8 95       	lpm
    2242:	c8 95       	lpm
    2244:	41 50       	subi	r20, 0x01	; 1
    2246:	61 f7       	brne	.-40     	; 0x2220 <ReadButtons+0x16>
    2248:	30 93 f8 06 	sts	0x06F8, r19	; 0x8006f8 <joypad1_status_lo+0x1>
    224c:	20 93 f7 06 	sts	0x06F7, r18	; 0x8006f7 <joypad1_status_lo>
    2250:	90 93 fc 06 	sts	0x06FC, r25	; 0x8006fc <joypad2_status_lo+0x1>
    2254:	80 93 fb 06 	sts	0x06FB, r24	; 0x8006fb <joypad2_status_lo>
    2258:	80 91 f7 06 	lds	r24, 0x06F7	; 0x8006f7 <joypad1_status_lo>
    225c:	90 91 f8 06 	lds	r25, 0x06F8	; 0x8006f8 <joypad1_status_lo+0x1>
    2260:	0f 97       	sbiw	r24, 0x0f	; 15
    2262:	31 f0       	breq	.+12     	; 0x2270 <ReadButtons+0x66>
    2264:	80 91 fb 06 	lds	r24, 0x06FB	; 0x8006fb <joypad2_status_lo>
    2268:	90 91 fc 06 	lds	r25, 0x06FC	; 0x8006fc <joypad2_status_lo+0x1>
    226c:	0f 97       	sbiw	r24, 0x0f	; 15
    226e:	11 f4       	brne	.+4      	; 0x2274 <ReadButtons+0x6a>
    2270:	0c 94 e6 10 	jmp	0x21cc	; 0x21cc <SoftReset>
    2274:	08 95       	ret

00002276 <ReadControllers>:
    2276:	10 92 46 09 	sts	0x0946, r1	; 0x800946 <joypadsConnectionStatus>
    227a:	00 99       	sbic	0x00, 0	; 0
    227c:	03 c0       	rjmp	.+6      	; 0x2284 <ReadControllers+0xe>
    227e:	81 e0       	ldi	r24, 0x01	; 1
    2280:	80 93 46 09 	sts	0x0946, r24	; 0x800946 <joypadsConnectionStatus>
    2284:	01 99       	sbic	0x00, 1	; 0
    2286:	05 c0       	rjmp	.+10     	; 0x2292 <ReadControllers+0x1c>
    2288:	80 91 46 09 	lds	r24, 0x0946	; 0x800946 <joypadsConnectionStatus>
    228c:	82 60       	ori	r24, 0x02	; 2
    228e:	80 93 46 09 	sts	0x0946, r24	; 0x800946 <joypadsConnectionStatus>
    2292:	0c 94 05 11 	jmp	0x220a	; 0x220a <ReadButtons>

00002296 <FormatEeprom>:
    2296:	cf 93       	push	r28
    2298:	df 93       	push	r29
    229a:	c0 e0       	ldi	r28, 0x00	; 0
    229c:	d0 e0       	ldi	r29, 0x00	; 0
    229e:	fe 01       	movw	r30, r28
    22a0:	e0 59       	subi	r30, 0x90	; 144
    22a2:	ff 4f       	sbci	r31, 0xFF	; 255
    22a4:	64 91       	lpm	r22, Z
    22a6:	ce 01       	movw	r24, r28
    22a8:	0e 94 f2 10 	call	0x21e4	; 0x21e4 <WriteEeprom>
    22ac:	21 96       	adiw	r28, 0x01	; 1
    22ae:	c0 32       	cpi	r28, 0x20	; 32
    22b0:	d1 05       	cpc	r29, r1
    22b2:	a9 f7       	brne	.-22     	; 0x229e <FormatEeprom+0x8>
    22b4:	c0 e2       	ldi	r28, 0x20	; 32
    22b6:	d0 e0       	ldi	r29, 0x00	; 0
    22b8:	6f ef       	ldi	r22, 0xFF	; 255
    22ba:	ce 01       	movw	r24, r28
    22bc:	0e 94 f2 10 	call	0x21e4	; 0x21e4 <WriteEeprom>
    22c0:	6f ef       	ldi	r22, 0xFF	; 255
    22c2:	ce 01       	movw	r24, r28
    22c4:	01 96       	adiw	r24, 0x01	; 1
    22c6:	0e 94 f2 10 	call	0x21e4	; 0x21e4 <WriteEeprom>
    22ca:	a0 96       	adiw	r28, 0x20	; 32
    22cc:	c1 15       	cp	r28, r1
    22ce:	88 e0       	ldi	r24, 0x08	; 8
    22d0:	d8 07       	cpc	r29, r24
    22d2:	91 f7       	brne	.-28     	; 0x22b8 <FormatEeprom+0x22>
    22d4:	df 91       	pop	r29
    22d6:	cf 91       	pop	r28
    22d8:	08 95       	ret

000022da <isEepromFormatted>:
	
//returns true if the EEPROM has been setup to work with the kernel.
bool isEepromFormatted(){
    22da:	cf 93       	push	r28
	unsigned id;
	id=ReadEeprom(0)+(ReadEeprom(1)<<8);
    22dc:	80 e0       	ldi	r24, 0x00	; 0
    22de:	90 e0       	ldi	r25, 0x00	; 0
    22e0:	0e 94 fc 10 	call	0x21f8	; 0x21f8 <ReadEeprom>
    22e4:	c8 2f       	mov	r28, r24
    22e6:	81 e0       	ldi	r24, 0x01	; 1
    22e8:	90 e0       	ldi	r25, 0x00	; 0
    22ea:	0e 94 fc 10 	call	0x21f8	; 0x21f8 <ReadEeprom>
	return (id==EEPROM_SIGNATURE);
    22ee:	28 2f       	mov	r18, r24
    22f0:	30 e0       	ldi	r19, 0x00	; 0
    22f2:	32 2f       	mov	r19, r18
    22f4:	22 27       	eor	r18, r18
    22f6:	2c 0f       	add	r18, r28
    22f8:	31 1d       	adc	r19, r1
    22fa:	81 e0       	ldi	r24, 0x01	; 1
    22fc:	2a 35       	cpi	r18, 0x5A	; 90
    22fe:	35 45       	sbci	r19, 0x55	; 85
    2300:	09 f0       	breq	.+2      	; 0x2304 <isEepromFormatted+0x2a>
    2302:	80 e0       	ldi	r24, 0x00	; 0
}
    2304:	cf 91       	pop	r28
    2306:	08 95       	ret

00002308 <PatchCommand00>:
	Track* track=&tracks[channel];
	track->flags=TRACK_FLAGS_PRIORITY; //priority=1;
	track->patchCommandStreamPos = NULL;
	TriggerCommon(track,patch,volume,80);
	track->flags|=TRACK_FLAGS_PLAYING;
}
    2308:	fc 01       	movw	r30, r24
    230a:	67 87       	std	Z+15, r22	; 0x0f
    230c:	08 95       	ret

0000230e <PatchCommand01>:
    230e:	e4 e1       	ldi	r30, 0x14	; 20
    2310:	f9 e0       	ldi	r31, 0x09	; 9
    2312:	81 e0       	ldi	r24, 0x01	; 1
    2314:	91 e0       	ldi	r25, 0x01	; 1
    2316:	95 8b       	std	Z+21, r25	; 0x15
    2318:	84 8b       	std	Z+20, r24	; 0x14
    231a:	63 8b       	std	Z+19, r22	; 0x13
    231c:	08 95       	ret

0000231e <PatchCommand02>:
    231e:	fc 01       	movw	r30, r24
    2320:	82 81       	ldd	r24, Z+2	; 0x02
    2322:	0c 94 d4 14 	jmp	0x29a8	; 0x29a8 <SetMixerWave>

00002326 <PatchCommand03>:
    2326:	fc 01       	movw	r30, r24
    2328:	91 81       	ldd	r25, Z+1	; 0x01
    232a:	69 0f       	add	r22, r25
    232c:	61 83       	std	Z+1, r22	; 0x01
    232e:	82 81       	ldd	r24, Z+2	; 0x02
    2330:	0c 94 bd 14 	jmp	0x297a	; 0x297a <SetMixerNote>

00002334 <PatchCommand04>:
    2334:	fc 01       	movw	r30, r24
    2336:	91 81       	ldd	r25, Z+1	; 0x01
    2338:	96 1b       	sub	r25, r22
    233a:	69 2f       	mov	r22, r25
    233c:	91 83       	std	Z+1, r25	; 0x01
    233e:	82 81       	ldd	r24, Z+2	; 0x02
    2340:	0c 94 bd 14 	jmp	0x297a	; 0x297a <SetMixerNote>

00002344 <PatchCommand05>:
    2344:	fc 01       	movw	r30, r24
    2346:	90 81       	ld	r25, Z
    2348:	9f 75       	andi	r25, 0x5F	; 95
    234a:	90 83       	st	Z, r25
    234c:	08 95       	ret

0000234e <PatchCommand06>:
    234e:	fc 01       	movw	r30, r24
    2350:	90 81       	ld	r25, Z
    2352:	90 64       	ori	r25, 0x40	; 64
    2354:	90 83       	st	Z, r25
    2356:	08 95       	ret

00002358 <PatchCommand07>:
    2358:	fc 01       	movw	r30, r24
    235a:	66 87       	std	Z+14, r22	; 0x0e
    235c:	08 95       	ret

0000235e <PatchCommand08>:
    235e:	1f 93       	push	r17
    2360:	cf 93       	push	r28
    2362:	df 93       	push	r29
    2364:	ec 01       	movw	r28, r24
    2366:	16 2f       	mov	r17, r22
    2368:	8a 81       	ldd	r24, Y+2	; 0x02
    236a:	0e 94 bd 14 	call	0x297a	; 0x297a <SetMixerNote>
    236e:	19 83       	std	Y+1, r17	; 0x01
    2370:	88 81       	ld	r24, Y
    2372:	87 7f       	andi	r24, 0xF7	; 247
    2374:	88 83       	st	Y, r24
    2376:	df 91       	pop	r29
    2378:	cf 91       	pop	r28
    237a:	1f 91       	pop	r17
    237c:	08 95       	ret

0000237e <PatchCommand09>:
    237e:	fc 01       	movw	r30, r24
    2380:	62 87       	std	Z+10, r22	; 0x0a
    2382:	08 95       	ret

00002384 <PatchCommand10>:
    2384:	fc 01       	movw	r30, r24
    2386:	63 87       	std	Z+11, r22	; 0x0b
    2388:	08 95       	ret

0000238a <PatchCommand11>:
    238a:	cf 93       	push	r28
    238c:	df 93       	push	r29
    238e:	ec 01       	movw	r28, r24
    2390:	26 2f       	mov	r18, r22
    2392:	89 81       	ldd	r24, Y+1	; 0x01
    2394:	90 e0       	ldi	r25, 0x00	; 0
    2396:	fc 01       	movw	r30, r24
    2398:	ee 0f       	add	r30, r30
    239a:	ff 1f       	adc	r31, r31
    239c:	ee 51       	subi	r30, 0x1E	; 30
    239e:	f6 4d       	sbci	r31, 0xD6	; 214
    23a0:	45 91       	lpm	r20, Z+
    23a2:	54 91       	lpm	r21, Z
    23a4:	fc 01       	movw	r30, r24
    23a6:	e6 0f       	add	r30, r22
    23a8:	f1 1d       	adc	r31, r1
    23aa:	67 fd       	sbrc	r22, 7
    23ac:	fa 95       	dec	r31
    23ae:	ee 0f       	add	r30, r30
    23b0:	ff 1f       	adc	r31, r31
    23b2:	ee 51       	subi	r30, 0x1E	; 30
    23b4:	f6 4d       	sbci	r31, 0xD6	; 214
    23b6:	85 91       	lpm	r24, Z+
    23b8:	94 91       	lpm	r25, Z
    23ba:	84 1b       	sub	r24, r20
    23bc:	95 0b       	sbc	r25, r21
    23be:	68 85       	ldd	r22, Y+8	; 0x08
    23c0:	70 e0       	ldi	r23, 0x00	; 0
    23c2:	0e 94 b7 1e 	call	0x3d6e	; 0x3d6e <__divmodhi4>
    23c6:	61 15       	cp	r22, r1
    23c8:	71 05       	cpc	r23, r1
    23ca:	11 f4       	brne	.+4      	; 0x23d0 <PatchCommand11+0x46>
    23cc:	61 e0       	ldi	r22, 0x01	; 1
    23ce:	70 e0       	ldi	r23, 0x00	; 0
    23d0:	ea 81       	ldd	r30, Y+2	; 0x02
    23d2:	86 e0       	ldi	r24, 0x06	; 6
    23d4:	e8 9f       	mul	r30, r24
    23d6:	f0 01       	movw	r30, r0
    23d8:	11 24       	eor	r1, r1
    23da:	ec 5e       	subi	r30, 0xEC	; 236
    23dc:	f6 4f       	sbci	r31, 0xF6	; 246
    23de:	81 81       	ldd	r24, Z+1	; 0x01
    23e0:	92 81       	ldd	r25, Z+2	; 0x02
    23e2:	86 0f       	add	r24, r22
    23e4:	97 1f       	adc	r25, r23
    23e6:	92 83       	std	Z+2, r25	; 0x02
    23e8:	81 83       	std	Z+1, r24	; 0x01
    23ea:	7e 83       	std	Y+6, r23	; 0x06
    23ec:	6d 83       	std	Y+5, r22	; 0x05
    23ee:	88 81       	ld	r24, Y
    23f0:	88 60       	ori	r24, 0x08	; 8
    23f2:	88 83       	st	Y, r24
    23f4:	89 81       	ldd	r24, Y+1	; 0x01
    23f6:	28 0f       	add	r18, r24
    23f8:	2f 83       	std	Y+7, r18	; 0x07
    23fa:	df 91       	pop	r29
    23fc:	cf 91       	pop	r28
    23fe:	08 95       	ret

00002400 <PatchCommand12>:
    2400:	fc 01       	movw	r30, r24
    2402:	60 87       	std	Z+8, r22	; 0x08
    2404:	08 95       	ret

00002406 <PatchCommand13>:
    2406:	fc 01       	movw	r30, r24
    2408:	64 83       	std	Z+4, r22	; 0x04
    240a:	08 95       	ret

0000240c <PatchCommand14>:
    240c:	dc 01       	movw	r26, r24
    240e:	14 96       	adiw	r26, 0x04	; 4
    2410:	8c 91       	ld	r24, X
    2412:	14 97       	sbiw	r26, 0x04	; 4
    2414:	88 23       	and	r24, r24
    2416:	19 f1       	breq	.+70     	; 0x245e <PatchCommand14+0x52>
    2418:	55 96       	adiw	r26, 0x15	; 21
    241a:	2d 91       	ld	r18, X+
    241c:	3c 91       	ld	r19, X
    241e:	56 97       	sbiw	r26, 0x16	; 22
    2420:	66 23       	and	r22, r22
    2422:	79 f0       	breq	.+30     	; 0x2442 <PatchCommand14+0x36>
    2424:	06 2e       	mov	r0, r22
    2426:	00 0c       	add	r0, r0
    2428:	77 0b       	sbc	r23, r23
    242a:	6f 5f       	subi	r22, 0xFF	; 255
    242c:	7f 4f       	sbci	r23, 0xFF	; 255
    242e:	ab 01       	movw	r20, r22
    2430:	44 0f       	add	r20, r20
    2432:	55 1f       	adc	r21, r21
    2434:	64 0f       	add	r22, r20
    2436:	75 1f       	adc	r23, r21
    2438:	26 1b       	sub	r18, r22
    243a:	37 0b       	sbc	r19, r23
    243c:	09 c0       	rjmp	.+18     	; 0x2450 <PatchCommand14+0x44>
    243e:	ef 3f       	cpi	r30, 0xFF	; 255
    2440:	39 f0       	breq	.+14     	; 0x2450 <PatchCommand14+0x44>
    2442:	23 50       	subi	r18, 0x03	; 3
    2444:	31 09       	sbc	r19, r1
    2446:	f9 01       	movw	r30, r18
    2448:	32 97       	sbiw	r30, 0x02	; 2
    244a:	e4 91       	lpm	r30, Z
    244c:	ed 30       	cpi	r30, 0x0D	; 13
    244e:	b9 f7       	brne	.-18     	; 0x243e <PatchCommand14+0x32>
    2450:	56 96       	adiw	r26, 0x16	; 22
    2452:	3c 93       	st	X, r19
    2454:	2e 93       	st	-X, r18
    2456:	55 97       	sbiw	r26, 0x15	; 21
    2458:	81 50       	subi	r24, 0x01	; 1
    245a:	14 96       	adiw	r26, 0x04	; 4
    245c:	8c 93       	st	X, r24
    245e:	08 95       	ret

00002460 <ProcessMusic>:
    2460:	ef 92       	push	r14
    2462:	ff 92       	push	r15
    2464:	0f 93       	push	r16
    2466:	1f 93       	push	r17
    2468:	cf 93       	push	r28
    246a:	df 93       	push	r29
    246c:	c9 e4       	ldi	r28, 0x49	; 73
    246e:	d9 e0       	ldi	r29, 0x09	; 9
    2470:	04 e1       	ldi	r16, 0x14	; 20
    2472:	19 e0       	ldi	r17, 0x09	; 9
    2474:	98 01       	movw	r18, r16
    2476:	de 01       	movw	r26, r28
    2478:	1f 96       	adiw	r26, 0x0f	; 15
    247a:	8c 91       	ld	r24, X
    247c:	1f 97       	sbiw	r26, 0x0f	; 15
    247e:	88 23       	and	r24, r24
    2480:	a9 f0       	breq	.+42     	; 0x24ac <ProcessMusic+0x4c>
    2482:	1e 96       	adiw	r26, 0x0e	; 14
    2484:	4c 91       	ld	r20, X
    2486:	1e 97       	sbiw	r26, 0x0e	; 14
    2488:	08 2e       	mov	r0, r24
    248a:	00 0c       	add	r0, r0
    248c:	99 0b       	sbc	r25, r25
    248e:	84 0f       	add	r24, r20
    2490:	91 1d       	adc	r25, r1
    2492:	8f 3f       	cpi	r24, 0xFF	; 255
    2494:	91 05       	cpc	r25, r1
    2496:	19 f0       	breq	.+6      	; 0x249e <ProcessMusic+0x3e>
    2498:	14 f0       	brlt	.+4      	; 0x249e <ProcessMusic+0x3e>
    249a:	8f ef       	ldi	r24, 0xFF	; 255
    249c:	90 e0       	ldi	r25, 0x00	; 0
    249e:	97 ff       	sbrs	r25, 7
    24a0:	02 c0       	rjmp	.+4      	; 0x24a6 <ProcessMusic+0x46>
    24a2:	80 e0       	ldi	r24, 0x00	; 0
    24a4:	90 e0       	ldi	r25, 0x00	; 0
    24a6:	1e 96       	adiw	r26, 0x0e	; 14
    24a8:	8c 93       	st	X, r24
    24aa:	1e 97       	sbiw	r26, 0x0e	; 14
    24ac:	6c 91       	ld	r22, X
    24ae:	63 ff       	sbrs	r22, 3
    24b0:	26 c0       	rjmp	.+76     	; 0x24fe <ProcessMusic+0x9e>
    24b2:	15 96       	adiw	r26, 0x05	; 5
    24b4:	4d 91       	ld	r20, X+
    24b6:	5c 91       	ld	r21, X
    24b8:	16 97       	sbiw	r26, 0x06	; 6
    24ba:	f9 01       	movw	r30, r18
    24bc:	81 81       	ldd	r24, Z+1	; 0x01
    24be:	92 81       	ldd	r25, Z+2	; 0x02
    24c0:	84 0f       	add	r24, r20
    24c2:	95 1f       	adc	r25, r21
    24c4:	92 83       	std	Z+2, r25	; 0x02
    24c6:	81 83       	std	Z+1, r24	; 0x01
    24c8:	17 96       	adiw	r26, 0x07	; 7
    24ca:	ec 91       	ld	r30, X
    24cc:	17 97       	sbiw	r26, 0x07	; 7
    24ce:	f0 e0       	ldi	r31, 0x00	; 0
    24d0:	ee 0f       	add	r30, r30
    24d2:	ff 1f       	adc	r31, r31
    24d4:	ee 51       	subi	r30, 0x1E	; 30
    24d6:	f6 4d       	sbci	r31, 0xD6	; 214
    24d8:	e5 90       	lpm	r14, Z+
    24da:	f4 90       	lpm	r15, Z
    24dc:	14 16       	cp	r1, r20
    24de:	15 06       	cpc	r1, r21
    24e0:	24 f4       	brge	.+8      	; 0x24ea <ProcessMusic+0x8a>
    24e2:	8e 15       	cp	r24, r14
    24e4:	9f 05       	cpc	r25, r15
    24e6:	30 f4       	brcc	.+12     	; 0x24f4 <ProcessMusic+0x94>
    24e8:	0a c0       	rjmp	.+20     	; 0x24fe <ProcessMusic+0x9e>
    24ea:	45 2b       	or	r20, r21
    24ec:	41 f0       	breq	.+16     	; 0x24fe <ProcessMusic+0x9e>
    24ee:	e8 16       	cp	r14, r24
    24f0:	f9 06       	cpc	r15, r25
    24f2:	28 f0       	brcs	.+10     	; 0x24fe <ProcessMusic+0x9e>
    24f4:	f9 01       	movw	r30, r18
    24f6:	f2 82       	std	Z+2, r15	; 0x02
    24f8:	e1 82       	std	Z+1, r14	; 0x01
    24fa:	67 7f       	andi	r22, 0xF7	; 247
    24fc:	6c 93       	st	X, r22
    24fe:	57 96       	adiw	r26, 0x17	; 23
    2500:	2a 5f       	subi	r18, 0xFA	; 250
    2502:	3f 4f       	sbci	r19, 0xFF	; 255
    2504:	f9 e0       	ldi	r31, 0x09	; 9
    2506:	a5 3a       	cpi	r26, 0xA5	; 165
    2508:	bf 07       	cpc	r27, r31
    250a:	09 f0       	breq	.+2      	; 0x250e <ProcessMusic+0xae>
    250c:	b5 cf       	rjmp	.-150    	; 0x2478 <ProcessMusic+0x18>
    250e:	80 91 02 07 	lds	r24, 0x0702	; 0x800702 <playSong>
    2512:	88 23       	and	r24, r24
    2514:	09 f4       	brne	.+2      	; 0x2518 <ProcessMusic+0xb8>
    2516:	cc c0       	rjmp	.+408    	; 0x26b0 <ProcessMusic+0x250>
    2518:	87 e1       	ldi	r24, 0x17	; 23
    251a:	f8 2e       	mov	r15, r24
    251c:	80 91 a5 09 	lds	r24, 0x09A5	; 0x8009a5 <currDeltaTime>
    2520:	90 91 a6 09 	lds	r25, 0x09A6	; 0x8009a6 <currDeltaTime+0x1>
    2524:	20 91 ab 09 	lds	r18, 0x09AB	; 0x8009ab <nextDeltaTime>
    2528:	30 91 ac 09 	lds	r19, 0x09AC	; 0x8009ac <nextDeltaTime+0x1>
    252c:	82 17       	cp	r24, r18
    252e:	93 07       	cpc	r25, r19
    2530:	09 f0       	breq	.+2      	; 0x2534 <ProcessMusic+0xd4>
    2532:	b9 c0       	rjmp	.+370    	; 0x26a6 <ProcessMusic+0x246>
    2534:	20 91 ae 09 	lds	r18, 0x09AE	; 0x8009ae <songPos>
    2538:	30 91 af 09 	lds	r19, 0x09AF	; 0x8009af <songPos+0x1>
    253c:	b9 01       	movw	r22, r18
    253e:	6f 5f       	subi	r22, 0xFF	; 255
    2540:	7f 4f       	sbci	r23, 0xFF	; 255
    2542:	70 93 af 09 	sts	0x09AF, r23	; 0x8009af <songPos+0x1>
    2546:	60 93 ae 09 	sts	0x09AE, r22	; 0x8009ae <songPos>
    254a:	f9 01       	movw	r30, r18
    254c:	44 91       	lpm	r20, Z
    254e:	4f 3f       	cpi	r20, 0xFF	; 255
    2550:	79 f5       	brne	.+94     	; 0x25b0 <ProcessMusic+0x150>
    2552:	a9 01       	movw	r20, r18
    2554:	4e 5f       	subi	r20, 0xFE	; 254
    2556:	5f 4f       	sbci	r21, 0xFF	; 255
    2558:	50 93 af 09 	sts	0x09AF, r21	; 0x8009af <songPos+0x1>
    255c:	40 93 ae 09 	sts	0x09AE, r20	; 0x8009ae <songPos>
    2560:	fb 01       	movw	r30, r22
    2562:	64 91       	lpm	r22, Z
    2564:	6f 32       	cpi	r22, 0x2F	; 47
    2566:	19 f4       	brne	.+6      	; 0x256e <ProcessMusic+0x10e>
    2568:	10 92 02 07 	sts	0x0702, r1	; 0x800702 <playSong>
    256c:	9c c0       	rjmp	.+312    	; 0x26a6 <ProcessMusic+0x246>
    256e:	66 30       	cpi	r22, 0x06	; 6
    2570:	09 f0       	breq	.+2      	; 0x2574 <ProcessMusic+0x114>
    2572:	8c c0       	rjmp	.+280    	; 0x268c <ProcessMusic+0x22c>
    2574:	fa 01       	movw	r30, r20
    2576:	44 91       	lpm	r20, Z
    2578:	c9 01       	movw	r24, r18
    257a:	04 96       	adiw	r24, 0x04	; 4
    257c:	90 93 af 09 	sts	0x09AF, r25	; 0x8009af <songPos+0x1>
    2580:	80 93 ae 09 	sts	0x09AE, r24	; 0x8009ae <songPos>
    2584:	f9 01       	movw	r30, r18
    2586:	33 96       	adiw	r30, 0x03	; 3
    2588:	e4 91       	lpm	r30, Z
    258a:	e3 35       	cpi	r30, 0x53	; 83
    258c:	29 f4       	brne	.+10     	; 0x2598 <ProcessMusic+0x138>
    258e:	90 93 b1 09 	sts	0x09B1, r25	; 0x8009b1 <loopStart+0x1>
    2592:	80 93 b0 09 	sts	0x09B0, r24	; 0x8009b0 <loopStart>
    2596:	7a c0       	rjmp	.+244    	; 0x268c <ProcessMusic+0x22c>
    2598:	e5 34       	cpi	r30, 0x45	; 69
    259a:	09 f0       	breq	.+2      	; 0x259e <ProcessMusic+0x13e>
    259c:	77 c0       	rjmp	.+238    	; 0x268c <ProcessMusic+0x22c>
    259e:	80 91 b0 09 	lds	r24, 0x09B0	; 0x8009b0 <loopStart>
    25a2:	90 91 b1 09 	lds	r25, 0x09B1	; 0x8009b1 <loopStart+0x1>
    25a6:	90 93 af 09 	sts	0x09AF, r25	; 0x8009af <songPos+0x1>
    25aa:	80 93 ae 09 	sts	0x09AE, r24	; 0x8009ae <songPos>
    25ae:	6e c0       	rjmp	.+220    	; 0x268c <ProcessMusic+0x22c>
    25b0:	47 fd       	sbrc	r20, 7
    25b2:	40 93 a9 09 	sts	0x09A9, r20	; 0x8009a9 <lastStatus>
    25b6:	90 91 a9 09 	lds	r25, 0x09A9	; 0x8009a9 <lastStatus>
    25ba:	89 2f       	mov	r24, r25
    25bc:	8f 70       	andi	r24, 0x0F	; 15
    25be:	47 ff       	sbrs	r20, 7
    25c0:	08 c0       	rjmp	.+16     	; 0x25d2 <ProcessMusic+0x172>
    25c2:	2e 5f       	subi	r18, 0xFE	; 254
    25c4:	3f 4f       	sbci	r19, 0xFF	; 255
    25c6:	30 93 af 09 	sts	0x09AF, r19	; 0x8009af <songPos+0x1>
    25ca:	20 93 ae 09 	sts	0x09AE, r18	; 0x8009ae <songPos>
    25ce:	fb 01       	movw	r30, r22
    25d0:	44 91       	lpm	r20, Z
    25d2:	90 7f       	andi	r25, 0xF0	; 240
    25d4:	90 3b       	cpi	r25, 0xB0	; 176
    25d6:	e1 f0       	breq	.+56     	; 0x2610 <ProcessMusic+0x1b0>
    25d8:	90 3c       	cpi	r25, 0xC0	; 192
    25da:	09 f4       	brne	.+2      	; 0x25de <ProcessMusic+0x17e>
    25dc:	51 c0       	rjmp	.+162    	; 0x2680 <ProcessMusic+0x220>
    25de:	90 39       	cpi	r25, 0x90	; 144
    25e0:	09 f0       	breq	.+2      	; 0x25e4 <ProcessMusic+0x184>
    25e2:	54 c0       	rjmp	.+168    	; 0x268c <ProcessMusic+0x22c>
    25e4:	e0 91 ae 09 	lds	r30, 0x09AE	; 0x8009ae <songPos>
    25e8:	f0 91 af 09 	lds	r31, 0x09AF	; 0x8009af <songPos+0x1>
    25ec:	9f 01       	movw	r18, r30
    25ee:	2f 5f       	subi	r18, 0xFF	; 255
    25f0:	3f 4f       	sbci	r19, 0xFF	; 255
    25f2:	30 93 af 09 	sts	0x09AF, r19	; 0x8009af <songPos+0x1>
    25f6:	20 93 ae 09 	sts	0x09AE, r18	; 0x8009ae <songPos>
    25fa:	24 91       	lpm	r18, Z
    25fc:	22 0f       	add	r18, r18
    25fe:	f8 9e       	mul	r15, r24
    2600:	f0 01       	movw	r30, r0
    2602:	11 24       	eor	r1, r1
    2604:	e7 5b       	subi	r30, 0xB7	; 183
    2606:	f6 4f       	sbci	r31, 0xF6	; 246
    2608:	60 89       	ldd	r22, Z+16	; 0x10
    260a:	0e 94 7d 14 	call	0x28fa	; 0x28fa <TriggerNote>
    260e:	3e c0       	rjmp	.+124    	; 0x268c <ProcessMusic+0x22c>
    2610:	e0 91 ae 09 	lds	r30, 0x09AE	; 0x8009ae <songPos>
    2614:	f0 91 af 09 	lds	r31, 0x09AF	; 0x8009af <songPos+0x1>
    2618:	9f 01       	movw	r18, r30
    261a:	2f 5f       	subi	r18, 0xFF	; 255
    261c:	3f 4f       	sbci	r19, 0xFF	; 255
    261e:	30 93 af 09 	sts	0x09AF, r19	; 0x8009af <songPos+0x1>
    2622:	20 93 ae 09 	sts	0x09AE, r18	; 0x8009ae <songPos>
    2626:	e4 91       	lpm	r30, Z
    2628:	47 30       	cpi	r20, 0x07	; 7
    262a:	49 f4       	brne	.+18     	; 0x263e <ProcessMusic+0x1de>
    262c:	f8 9e       	mul	r15, r24
    262e:	d0 01       	movw	r26, r0
    2630:	11 24       	eor	r1, r1
    2632:	a7 5b       	subi	r26, 0xB7	; 183
    2634:	b6 4f       	sbci	r27, 0xF6	; 246
    2636:	ee 0f       	add	r30, r30
    2638:	1c 96       	adiw	r26, 0x0c	; 12
    263a:	ec 93       	st	X, r30
    263c:	27 c0       	rjmp	.+78     	; 0x268c <ProcessMusic+0x22c>
    263e:	4b 30       	cpi	r20, 0x0B	; 11
    2640:	49 f4       	brne	.+18     	; 0x2654 <ProcessMusic+0x1f4>
    2642:	f8 9e       	mul	r15, r24
    2644:	d0 01       	movw	r26, r0
    2646:	11 24       	eor	r1, r1
    2648:	a7 5b       	subi	r26, 0xB7	; 183
    264a:	b6 4f       	sbci	r27, 0xF6	; 246
    264c:	ee 0f       	add	r30, r30
    264e:	13 96       	adiw	r26, 0x03	; 3
    2650:	ec 93       	st	X, r30
    2652:	1c c0       	rjmp	.+56     	; 0x268c <ProcessMusic+0x22c>
    2654:	4c 35       	cpi	r20, 0x5C	; 92
    2656:	49 f4       	brne	.+18     	; 0x266a <ProcessMusic+0x20a>
    2658:	f8 9e       	mul	r15, r24
    265a:	d0 01       	movw	r26, r0
    265c:	11 24       	eor	r1, r1
    265e:	a7 5b       	subi	r26, 0xB7	; 183
    2660:	b6 4f       	sbci	r27, 0xF6	; 246
    2662:	ee 0f       	add	r30, r30
    2664:	1a 96       	adiw	r26, 0x0a	; 10
    2666:	ec 93       	st	X, r30
    2668:	11 c0       	rjmp	.+34     	; 0x268c <ProcessMusic+0x22c>
    266a:	44 36       	cpi	r20, 0x64	; 100
    266c:	79 f4       	brne	.+30     	; 0x268c <ProcessMusic+0x22c>
    266e:	f8 9e       	mul	r15, r24
    2670:	d0 01       	movw	r26, r0
    2672:	11 24       	eor	r1, r1
    2674:	a7 5b       	subi	r26, 0xB7	; 183
    2676:	b6 4f       	sbci	r27, 0xF6	; 246
    2678:	ee 0f       	add	r30, r30
    267a:	1b 96       	adiw	r26, 0x0b	; 11
    267c:	ec 93       	st	X, r30
    267e:	06 c0       	rjmp	.+12     	; 0x268c <ProcessMusic+0x22c>
    2680:	f8 9e       	mul	r15, r24
    2682:	f0 01       	movw	r30, r0
    2684:	11 24       	eor	r1, r1
    2686:	e7 5b       	subi	r30, 0xB7	; 183
    2688:	f6 4f       	sbci	r31, 0xF6	; 246
    268a:	40 8b       	std	Z+16, r20	; 0x10
    268c:	8e ea       	ldi	r24, 0xAE	; 174
    268e:	99 e0       	ldi	r25, 0x09	; 9
    2690:	0e 94 09 14 	call	0x2812	; 0x2812 <ReadVarLen>
    2694:	90 93 ac 09 	sts	0x09AC, r25	; 0x8009ac <nextDeltaTime+0x1>
    2698:	80 93 ab 09 	sts	0x09AB, r24	; 0x8009ab <nextDeltaTime>
    269c:	10 92 a6 09 	sts	0x09A6, r1	; 0x8009a6 <currDeltaTime+0x1>
    26a0:	10 92 a5 09 	sts	0x09A5, r1	; 0x8009a5 <currDeltaTime>
    26a4:	3b cf       	rjmp	.-394    	; 0x251c <ProcessMusic+0xbc>
    26a6:	01 96       	adiw	r24, 0x01	; 1
    26a8:	90 93 a6 09 	sts	0x09A6, r25	; 0x8009a6 <currDeltaTime+0x1>
    26ac:	80 93 a5 09 	sts	0x09A5, r24	; 0x8009a5 <currDeltaTime>
    26b0:	ee 24       	eor	r14, r14
    26b2:	ea 94       	dec	r14
    26b4:	f1 2c       	mov	r15, r1
    26b6:	88 81       	ld	r24, Y
    26b8:	85 ff       	sbrs	r24, 5
    26ba:	37 c0       	rjmp	.+110    	; 0x272a <ProcessMusic+0x2ca>
    26bc:	2d 89       	ldd	r18, Y+21	; 0x15
    26be:	3e 89       	ldd	r19, Y+22	; 0x16
    26c0:	23 2b       	or	r18, r19
    26c2:	09 f4       	brne	.+2      	; 0x26c6 <ProcessMusic+0x266>
    26c4:	32 c0       	rjmp	.+100    	; 0x272a <ProcessMusic+0x2ca>
    26c6:	86 fd       	sbrc	r24, 6
    26c8:	30 c0       	rjmp	.+96     	; 0x272a <ProcessMusic+0x2ca>
    26ca:	9b 89       	ldd	r25, Y+19	; 0x13
    26cc:	8a 89       	ldd	r24, Y+18	; 0x12
    26ce:	98 13       	cpse	r25, r24
    26d0:	2a c0       	rjmp	.+84     	; 0x2726 <ProcessMusic+0x2c6>
    26d2:	ed 89       	ldd	r30, Y+21	; 0x15
    26d4:	fe 89       	ldd	r31, Y+22	; 0x16
    26d6:	bf 01       	movw	r22, r30
    26d8:	6f 5f       	subi	r22, 0xFF	; 255
    26da:	7f 4f       	sbci	r23, 0xFF	; 255
    26dc:	7e 8b       	std	Y+22, r23	; 0x16
    26de:	6d 8b       	std	Y+21, r22	; 0x15
    26e0:	84 91       	lpm	r24, Z
    26e2:	8f 3f       	cpi	r24, 0xFF	; 255
    26e4:	31 f4       	brne	.+12     	; 0x26f2 <ProcessMusic+0x292>
    26e6:	88 81       	ld	r24, Y
    26e8:	8f 77       	andi	r24, 0x7F	; 127
    26ea:	88 83       	st	Y, r24
    26ec:	1e 8a       	std	Y+22, r1	; 0x16
    26ee:	1d 8a       	std	Y+21, r1	; 0x15
    26f0:	1a c0       	rjmp	.+52     	; 0x2726 <ProcessMusic+0x2c6>
    26f2:	32 96       	adiw	r30, 0x02	; 2
    26f4:	fe 8b       	std	Y+22, r31	; 0x16
    26f6:	ed 8b       	std	Y+21, r30	; 0x15
    26f8:	fb 01       	movw	r30, r22
    26fa:	64 91       	lpm	r22, Z
    26fc:	e8 2f       	mov	r30, r24
    26fe:	f0 e0       	ldi	r31, 0x00	; 0
    2700:	ee 0f       	add	r30, r30
    2702:	ff 1f       	adc	r31, r31
    2704:	ee 53       	subi	r30, 0x3E	; 62
    2706:	ff 4f       	sbci	r31, 0xFF	; 255
    2708:	25 91       	lpm	r18, Z+
    270a:	34 91       	lpm	r19, Z
    270c:	ce 01       	movw	r24, r28
    270e:	f9 01       	movw	r30, r18
    2710:	09 95       	icall
    2712:	ed 89       	ldd	r30, Y+21	; 0x15
    2714:	fe 89       	ldd	r31, Y+22	; 0x16
    2716:	cf 01       	movw	r24, r30
    2718:	01 96       	adiw	r24, 0x01	; 1
    271a:	9e 8b       	std	Y+22, r25	; 0x16
    271c:	8d 8b       	std	Y+21, r24	; 0x15
    271e:	e4 91       	lpm	r30, Z
    2720:	ea 8b       	std	Y+18, r30	; 0x12
    2722:	1b 8a       	std	Y+19, r1	; 0x13
    2724:	d2 cf       	rjmp	.-92     	; 0x26ca <ProcessMusic+0x26a>
    2726:	9f 5f       	subi	r25, 0xFF	; 255
    2728:	9b 8b       	std	Y+19, r25	; 0x13
    272a:	98 81       	ld	r25, Y
    272c:	95 ff       	sbrs	r25, 5
    272e:	5e c0       	rjmp	.+188    	; 0x27ec <ProcessMusic+0x38c>
    2730:	8c 89       	ldd	r24, Y+20	; 0x14
    2732:	8f 3f       	cpi	r24, 0xFF	; 255
    2734:	11 f0       	breq	.+4      	; 0x273a <ProcessMusic+0x2da>
    2736:	8f 5f       	subi	r24, 0xFF	; 255
    2738:	8c 8b       	std	Y+20, r24	; 0x14
    273a:	97 fd       	sbrc	r25, 7
    273c:	02 c0       	rjmp	.+4      	; 0x2742 <ProcessMusic+0x2e2>
    273e:	9c 85       	ldd	r25, Y+12	; 0x0c
    2740:	01 c0       	rjmp	.+2      	; 0x2744 <ProcessMusic+0x2e4>
    2742:	9f ef       	ldi	r25, 0xFF	; 255
    2744:	8d 85       	ldd	r24, Y+13	; 0x0d
    2746:	49 85       	ldd	r20, Y+9	; 0x09
    2748:	88 23       	and	r24, r24
    274a:	09 f4       	brne	.+2      	; 0x274e <ProcessMusic+0x2ee>
    274c:	49 c0       	rjmp	.+146    	; 0x27e0 <ProcessMusic+0x380>
    274e:	6e 85       	ldd	r22, Y+14	; 0x0e
    2750:	66 23       	and	r22, r22
    2752:	09 f4       	brne	.+2      	; 0x2756 <ProcessMusic+0x2f6>
    2754:	45 c0       	rjmp	.+138    	; 0x27e0 <ProcessMusic+0x380>
    2756:	99 23       	and	r25, r25
    2758:	09 f4       	brne	.+2      	; 0x275c <ProcessMusic+0x2fc>
    275a:	42 c0       	rjmp	.+132    	; 0x27e0 <ProcessMusic+0x380>
    275c:	50 91 aa 09 	lds	r21, 0x09AA	; 0x8009aa <masterVolume>
    2760:	55 23       	and	r21, r21
    2762:	09 f4       	brne	.+2      	; 0x2766 <ProcessMusic+0x306>
    2764:	3d c0       	rjmp	.+122    	; 0x27e0 <ProcessMusic+0x380>
    2766:	89 9f       	mul	r24, r25
    2768:	c0 01       	movw	r24, r0
    276a:	11 24       	eor	r1, r1
    276c:	93 95       	inc	r25
    276e:	89 2f       	mov	r24, r25
    2770:	99 27       	eor	r25, r25
    2772:	68 9f       	mul	r22, r24
    2774:	90 01       	movw	r18, r0
    2776:	69 9f       	mul	r22, r25
    2778:	30 0d       	add	r19, r0
    277a:	11 24       	eor	r1, r1
    277c:	33 95       	inc	r19
    277e:	23 2f       	mov	r18, r19
    2780:	33 27       	eor	r19, r19
    2782:	6b 81       	ldd	r22, Y+3	; 0x03
    2784:	62 9f       	mul	r22, r18
    2786:	c0 01       	movw	r24, r0
    2788:	63 9f       	mul	r22, r19
    278a:	90 0d       	add	r25, r0
    278c:	11 24       	eor	r1, r1
    278e:	93 95       	inc	r25
    2790:	89 2f       	mov	r24, r25
    2792:	99 27       	eor	r25, r25
    2794:	58 9f       	mul	r21, r24
    2796:	90 01       	movw	r18, r0
    2798:	59 9f       	mul	r21, r25
    279a:	30 0d       	add	r19, r0
    279c:	11 24       	eor	r1, r1
    279e:	33 95       	inc	r19
    27a0:	23 2f       	mov	r18, r19
    27a2:	33 27       	eor	r19, r19
    27a4:	8a 85       	ldd	r24, Y+10	; 0x0a
    27a6:	88 23       	and	r24, r24
    27a8:	e9 f0       	breq	.+58     	; 0x27e4 <ProcessMusic+0x384>
    27aa:	e4 2f       	mov	r30, r20
    27ac:	f0 e0       	ldi	r31, 0x00	; 0
    27ae:	e0 50       	subi	r30, 0x00	; 0
    27b0:	f5 4d       	sbci	r31, 0xD5	; 213
    27b2:	e4 91       	lpm	r30, Z
    27b4:	e0 58       	subi	r30, 0x80	; 128
    27b6:	8e 9f       	mul	r24, r30
    27b8:	f0 01       	movw	r30, r0
    27ba:	11 24       	eor	r1, r1
    27bc:	f3 95       	inc	r31
    27be:	ef 2f       	mov	r30, r31
    27c0:	ff 27       	eor	r31, r31
    27c2:	b7 01       	movw	r22, r14
    27c4:	6e 1b       	sub	r22, r30
    27c6:	7f 0b       	sbc	r23, r31
    27c8:	62 9f       	mul	r22, r18
    27ca:	c0 01       	movw	r24, r0
    27cc:	63 9f       	mul	r22, r19
    27ce:	90 0d       	add	r25, r0
    27d0:	72 9f       	mul	r23, r18
    27d2:	90 0d       	add	r25, r0
    27d4:	11 24       	eor	r1, r1
    27d6:	9c 01       	movw	r18, r24
    27d8:	33 95       	inc	r19
    27da:	23 2f       	mov	r18, r19
    27dc:	33 27       	eor	r19, r19
    27de:	02 c0       	rjmp	.+4      	; 0x27e4 <ProcessMusic+0x384>
    27e0:	20 e0       	ldi	r18, 0x00	; 0
    27e2:	30 e0       	ldi	r19, 0x00	; 0
    27e4:	8b 85       	ldd	r24, Y+11	; 0x0b
    27e6:	48 0f       	add	r20, r24
    27e8:	49 87       	std	Y+9, r20	; 0x09
    27ea:	02 c0       	rjmp	.+4      	; 0x27f0 <ProcessMusic+0x390>
    27ec:	20 e0       	ldi	r18, 0x00	; 0
    27ee:	30 e0       	ldi	r19, 0x00	; 0
    27f0:	f8 01       	movw	r30, r16
    27f2:	20 83       	st	Z, r18
    27f4:	67 96       	adiw	r28, 0x17	; 23
    27f6:	0a 5f       	subi	r16, 0xFA	; 250
    27f8:	1f 4f       	sbci	r17, 0xFF	; 255
    27fa:	f9 e0       	ldi	r31, 0x09	; 9
    27fc:	c5 3a       	cpi	r28, 0xA5	; 165
    27fe:	df 07       	cpc	r29, r31
    2800:	09 f0       	breq	.+2      	; 0x2804 <ProcessMusic+0x3a4>
    2802:	59 cf       	rjmp	.-334    	; 0x26b6 <ProcessMusic+0x256>
    2804:	df 91       	pop	r29
    2806:	cf 91       	pop	r28
    2808:	1f 91       	pop	r17
    280a:	0f 91       	pop	r16
    280c:	ff 90       	pop	r15
    280e:	ef 90       	pop	r14
    2810:	08 95       	ret

00002812 <ReadVarLen>:
    2812:	dc 01       	movw	r26, r24
    2814:	ed 91       	ld	r30, X+
    2816:	fc 91       	ld	r31, X
    2818:	11 97       	sbiw	r26, 0x01	; 1
    281a:	9f 01       	movw	r18, r30
    281c:	2f 5f       	subi	r18, 0xFF	; 255
    281e:	3f 4f       	sbci	r19, 0xFF	; 255
    2820:	11 96       	adiw	r26, 0x01	; 1
    2822:	3c 93       	st	X, r19
    2824:	2e 93       	st	-X, r18
    2826:	e4 91       	lpm	r30, Z
    2828:	e7 fd       	sbrc	r30, 7
    282a:	03 c0       	rjmp	.+6      	; 0x2832 <ReadVarLen+0x20>
    282c:	8e 2f       	mov	r24, r30
    282e:	90 e0       	ldi	r25, 0x00	; 0
    2830:	08 95       	ret
    2832:	ef 77       	andi	r30, 0x7F	; 127
    2834:	8e 2f       	mov	r24, r30
    2836:	90 e0       	ldi	r25, 0x00	; 0
    2838:	96 95       	lsr	r25
    283a:	98 2f       	mov	r25, r24
    283c:	88 27       	eor	r24, r24
    283e:	97 95       	ror	r25
    2840:	87 95       	ror	r24
    2842:	2f 5f       	subi	r18, 0xFF	; 255
    2844:	3f 4f       	sbci	r19, 0xFF	; 255
    2846:	f9 01       	movw	r30, r18
    2848:	31 97       	sbiw	r30, 0x01	; 1
    284a:	e4 91       	lpm	r30, Z
    284c:	4e 2f       	mov	r20, r30
    284e:	4f 77       	andi	r20, 0x7F	; 127
    2850:	84 0f       	add	r24, r20
    2852:	91 1d       	adc	r25, r1
    2854:	e7 fd       	sbrc	r30, 7
    2856:	f0 cf       	rjmp	.-32     	; 0x2838 <ReadVarLen+0x26>
    2858:	2d 93       	st	X+, r18
    285a:	3c 93       	st	X, r19
    285c:	08 95       	ret

0000285e <TriggerCommon>:
    285e:	0f 93       	push	r16
    2860:	1f 93       	push	r17
    2862:	cf 93       	push	r28
    2864:	df 93       	push	r29
    2866:	ec 01       	movw	r28, r24
    2868:	16 2f       	mov	r17, r22
    286a:	88 81       	ld	r24, Y
    286c:	08 2f       	mov	r16, r24
    286e:	00 78       	andi	r16, 0x80	; 128
    2870:	1f 86       	std	Y+15, r1	; 0x0f
    2872:	9f ef       	ldi	r25, 0xFF	; 255
    2874:	9e 87       	std	Y+14, r25	; 0x0e
    2876:	4d 87       	std	Y+13, r20	; 0x0d
    2878:	1c 8a       	std	Y+20, r1	; 0x14
    287a:	87 7b       	andi	r24, 0xB7	; 183
    287c:	88 83       	st	Y, r24
    287e:	1a 86       	std	Y+10, r1	; 0x0a
    2880:	19 86       	std	Y+9, r1	; 0x09
    2882:	29 83       	std	Y+1, r18	; 0x01
    2884:	1c 82       	std	Y+4, r1	; 0x04
    2886:	9b 83       	std	Y+3, r25	; 0x03
    2888:	8a 81       	ldd	r24, Y+2	; 0x02
    288a:	83 30       	cpi	r24, 0x03	; 3
    288c:	69 f4       	brne	.+26     	; 0x28a8 <TriggerCommon+0x4a>
    288e:	01 11       	cpse	r16, r1
    2890:	01 c0       	rjmp	.+2      	; 0x2894 <TriggerCommon+0x36>
    2892:	12 2f       	mov	r17, r18
    2894:	81 e0       	ldi	r24, 0x01	; 1
    2896:	91 e0       	ldi	r25, 0x01	; 1
    2898:	90 93 29 09 	sts	0x0929, r25	; 0x800929 <tr4_barrel_hi>
    289c:	80 93 28 09 	sts	0x0928, r24	; 0x800928 <tr4_barrel_lo>
    28a0:	81 e0       	ldi	r24, 0x01	; 1
    28a2:	80 93 27 09 	sts	0x0927, r24	; 0x800927 <tr4_params>
    28a6:	07 c0       	rjmp	.+14     	; 0x28b6 <TriggerCommon+0x58>
    28a8:	62 2f       	mov	r22, r18
    28aa:	0e 94 bd 14 	call	0x297a	; 0x297a <SetMixerNote>
    28ae:	60 e0       	ldi	r22, 0x00	; 0
    28b0:	8a 81       	ldd	r24, Y+2	; 0x02
    28b2:	0e 94 d4 14 	call	0x29a8	; 0x29a8 <SetMixerWave>
    28b6:	00 23       	and	r16, r16
    28b8:	11 f0       	breq	.+4      	; 0x28be <TriggerCommon+0x60>
    28ba:	19 8b       	std	Y+17, r17	; 0x11
    28bc:	01 c0       	rjmp	.+2      	; 0x28c0 <TriggerCommon+0x62>
    28be:	18 8b       	std	Y+16, r17	; 0x10
    28c0:	e0 91 a7 09 	lds	r30, 0x09A7	; 0x8009a7 <patchPointers>
    28c4:	f0 91 a8 09 	lds	r31, 0x09A8	; 0x8009a8 <patchPointers+0x1>
    28c8:	89 e0       	ldi	r24, 0x09	; 9
    28ca:	18 9f       	mul	r17, r24
    28cc:	e0 0d       	add	r30, r0
    28ce:	f1 1d       	adc	r31, r1
    28d0:	11 24       	eor	r1, r1
    28d2:	33 96       	adiw	r30, 0x03	; 3
    28d4:	85 91       	lpm	r24, Z+
    28d6:	94 91       	lpm	r25, Z
    28d8:	00 97       	sbiw	r24, 0x00	; 0
    28da:	19 f4       	brne	.+6      	; 0x28e2 <TriggerCommon+0x84>
    28dc:	1e 8a       	std	Y+22, r1	; 0x16
    28de:	1d 8a       	std	Y+21, r1	; 0x15
    28e0:	07 c0       	rjmp	.+14     	; 0x28f0 <TriggerCommon+0x92>
    28e2:	1b 8a       	std	Y+19, r1	; 0x13
    28e4:	fc 01       	movw	r30, r24
    28e6:	24 91       	lpm	r18, Z
    28e8:	2a 8b       	std	Y+18, r18	; 0x12
    28ea:	01 96       	adiw	r24, 0x01	; 1
    28ec:	9e 8b       	std	Y+22, r25	; 0x16
    28ee:	8d 8b       	std	Y+21, r24	; 0x15
    28f0:	df 91       	pop	r29
    28f2:	cf 91       	pop	r28
    28f4:	1f 91       	pop	r17
    28f6:	0f 91       	pop	r16
    28f8:	08 95       	ret

000028fa <TriggerNote>:


void TriggerNote(unsigned char channel,unsigned char patch,unsigned char note,unsigned char volume){
    28fa:	cf 93       	push	r28
    28fc:	df 93       	push	r29
	Track* track=&tracks[channel];

	//allow only other music notes 
	if((track->flags&TRACK_FLAGS_PLAYING)==0 || (track->flags&TRACK_FLAGS_PRIORITY)==0){
    28fe:	a8 2f       	mov	r26, r24
    2900:	b0 e0       	ldi	r27, 0x00	; 0
    2902:	97 e1       	ldi	r25, 0x17	; 23
    2904:	89 9f       	mul	r24, r25
    2906:	f0 01       	movw	r30, r0
    2908:	11 24       	eor	r1, r1
    290a:	e7 5b       	subi	r30, 0xB7	; 183
    290c:	f6 4f       	sbci	r31, 0xF6	; 246
    290e:	80 81       	ld	r24, Z
    2910:	85 ff       	sbrs	r24, 5
    2912:	02 c0       	rjmp	.+4      	; 0x2918 <TriggerNote+0x1e>
    2914:	87 fd       	sbrc	r24, 7
    2916:	2e c0       	rjmp	.+92     	; 0x2974 <TriggerNote+0x7a>
			
		if(volume==0){ //note-off received
    2918:	21 11       	cpse	r18, r1
    291a:	18 c0       	rjmp	.+48     	; 0x294c <TriggerNote+0x52>

			
			//cut note if there's no envelope & no note hold
			if(track->envelopeStep==0 && !(track->flags&TRACK_FLAGS_HOLD_ENV)){
    291c:	97 e1       	ldi	r25, 0x17	; 23
    291e:	9a 9f       	mul	r25, r26
    2920:	f0 01       	movw	r30, r0
    2922:	9b 9f       	mul	r25, r27
    2924:	f0 0d       	add	r31, r0
    2926:	11 24       	eor	r1, r1
    2928:	e7 5b       	subi	r30, 0xB7	; 183
    292a:	f6 4f       	sbci	r31, 0xF6	; 246
    292c:	97 85       	ldd	r25, Z+15	; 0x0f
    292e:	91 11       	cpse	r25, r1
    2930:	02 c0       	rjmp	.+4      	; 0x2936 <TriggerNote+0x3c>
    2932:	86 ff       	sbrs	r24, 6
				track->noteVol=0;
    2934:	15 86       	std	Z+13, r1	; 0x0d
			}

			track->flags&=(~TRACK_FLAGS_HOLD_ENV);//patchEnvelopeHold=false;
    2936:	97 e1       	ldi	r25, 0x17	; 23
    2938:	9a 9f       	mul	r25, r26
    293a:	f0 01       	movw	r30, r0
    293c:	9b 9f       	mul	r25, r27
    293e:	f0 0d       	add	r31, r0
    2940:	11 24       	eor	r1, r1
    2942:	e7 5b       	subi	r30, 0xB7	; 183
    2944:	f6 4f       	sbci	r31, 0xF6	; 246
    2946:	8f 7b       	andi	r24, 0xBF	; 191
    2948:	80 83       	st	Z, r24
    294a:	14 c0       	rjmp	.+40     	; 0x2974 <TriggerNote+0x7a>
    294c:	82 2f       	mov	r24, r18
    294e:	24 2f       	mov	r18, r20
		}else{
		
			track->flags=0;//&=(~TRACK_FLAGS_PRIORITY);// priority=0;
    2950:	97 e1       	ldi	r25, 0x17	; 23
    2952:	9a 9f       	mul	r25, r26
    2954:	e0 01       	movw	r28, r0
    2956:	9b 9f       	mul	r25, r27
    2958:	d0 0d       	add	r29, r0
    295a:	11 24       	eor	r1, r1
    295c:	c7 5b       	subi	r28, 0xB7	; 183
    295e:	d6 4f       	sbci	r29, 0xF6	; 246
    2960:	18 82       	st	Y, r1
			track->patchCommandStreamPos = NULL;
    2962:	1e 8a       	std	Y+22, r1	; 0x16
    2964:	1d 8a       	std	Y+21, r1	; 0x15
			TriggerCommon(track,patch,volume,note);
    2966:	48 2f       	mov	r20, r24
    2968:	ce 01       	movw	r24, r28
    296a:	0e 94 2f 14 	call	0x285e	; 0x285e <TriggerCommon>
			track->flags|=TRACK_FLAGS_PLAYING;
    296e:	88 81       	ld	r24, Y
    2970:	80 62       	ori	r24, 0x20	; 32
    2972:	88 83       	st	Y, r24
		}

	}
}
    2974:	df 91       	pop	r29
    2976:	cf 91       	pop	r28
    2978:	08 95       	ret

0000297a <SetMixerNote>:
    297a:	99 27       	eor	r25, r25
    297c:	77 27       	eor	r23, r23
    297e:	83 30       	cpi	r24, 0x03	; 3
    2980:	08 f0       	brcs	.+2      	; 0x2984 <set_note_waves>
    2982:	08 95       	ret

00002984 <set_note_waves>:
    2984:	e2 ee       	ldi	r30, 0xE2	; 226
    2986:	f9 e2       	ldi	r31, 0x29	; 41
    2988:	66 0f       	add	r22, r22
    298a:	77 1f       	adc	r23, r23
    298c:	e6 0f       	add	r30, r22
    298e:	f7 1f       	adc	r31, r23
    2990:	a5 91       	lpm	r26, Z+
    2992:	b4 91       	lpm	r27, Z
    2994:	e4 e1       	ldi	r30, 0x14	; 20
    2996:	f9 e0       	ldi	r31, 0x09	; 9
    2998:	26 e0       	ldi	r18, 0x06	; 6
    299a:	28 9f       	mul	r18, r24
    299c:	e0 0d       	add	r30, r0
    299e:	f1 1d       	adc	r31, r1
    29a0:	a1 83       	std	Z+1, r26	; 0x01
    29a2:	b2 83       	std	Z+2, r27	; 0x02
    29a4:	11 24       	eor	r1, r1
    29a6:	08 95       	ret

000029a8 <SetMixerWave>:
;         Noise channel: 0xfe=7 bit lfsr, 0xff=15 bit lfsr
;                 
;***********************
.section .text.SetMixerWave
SetMixerWave:
	clr r25
    29a8:	99 27       	eor	r25, r25
	clr r23
    29aa:	77 27       	eor	r23, r23

#if (INCLUDE_DEFAULT_WAVES != 0)
	ldi ZL,lo8(mixerStruct)
    29ac:	e4 e1       	ldi	r30, 0x14	; 20
	ldi ZH,hi8(mixerStruct)
    29ae:	f9 e0       	ldi	r31, 0x09	; 9
	ldi r18,CHANNEL_STRUCT_SIZE
    29b0:	26 e0       	ldi	r18, 0x06	; 6
	mul r18,r24	
    29b2:	28 9f       	mul	r18, r24
	add ZL,r0
    29b4:	e0 0d       	add	r30, r0
	adc ZH,r1
    29b6:	f1 1d       	adc	r31, r1
#endif

#if MIXER_CHAN4_TYPE == 0
	cpi r22,0xfe	;7bit lfsr
    29b8:	6e 3f       	cpi	r22, 0xFE	; 254
	brne smw1
    29ba:	31 f4       	brne	.+12     	; 0x29c8 <smw1>
	lds r22,tr4_params
    29bc:	60 91 27 09 	lds	r22, 0x0927	; 0x800927 <tr4_params>
	andi r22,0xfe;
    29c0:	6e 7f       	andi	r22, 0xFE	; 254
	sts tr4_params,r22
    29c2:	60 93 27 09 	sts	0x0927, r22	; 0x800927 <tr4_params>
	rjmp esmw	
    29c6:	0b c0       	rjmp	.+22     	; 0x29de <esmw>

000029c8 <smw1>:
smw1:
	cpi r22,0xff	;15bit lfsr
    29c8:	6f 3f       	cpi	r22, 0xFF	; 255
	brne smw2
    29ca:	31 f4       	brne	.+12     	; 0x29d8 <smw2>
	lds r22,tr4_params
    29cc:	60 91 27 09 	lds	r22, 0x0927	; 0x800927 <tr4_params>
	ori r22,0xfe;
    29d0:	6e 6f       	ori	r22, 0xFE	; 254
	sts tr4_params,r22	
    29d2:	60 93 27 09 	sts	0x0927, r22	; 0x800927 <tr4_params>
	rjmp esmw
    29d6:	03 c0       	rjmp	.+6      	; 0x29de <esmw>

000029d8 <smw2>:
smw2:
#endif

#if (INCLUDE_DEFAULT_WAVES != 0)
	ldi r23,hi8(waves)
    29d8:	7b e2       	ldi	r23, 0x2B	; 43
	add r23,r22
    29da:	76 0f       	add	r23, r22
	std Z+samplepos_hi,r23 ;store path No
    29dc:	75 83       	std	Z+5, r23	; 0x05

000029de <esmw>:
#endif

esmw:
	clr r1	
    29de:	11 24       	eor	r1, r1
	ret
    29e0:	08 95       	ret

000029e2 <steptable>:
    29e2:	22 00       	.word	0x0022	; ????
    29e4:	24 00       	.word	0x0024	; ????
    29e6:	26 00       	.word	0x0026	; ????
    29e8:	28 00       	.word	0x0028	; ????
    29ea:	2b 00       	.word	0x002b	; ????
    29ec:	2d 00       	.word	0x002d	; ????
    29ee:	30 00       	.word	0x0030	; ????
    29f0:	33 00       	.word	0x0033	; ????
    29f2:	36 00       	.word	0x0036	; ????
    29f4:	39 00       	.word	0x0039	; ????
    29f6:	3d 00       	.word	0x003d	; ????
    29f8:	40 00       	.word	0x0040	; ????
    29fa:	44 00       	.word	0x0044	; ????
    29fc:	48 00       	.word	0x0048	; ????
    29fe:	4c 00       	.word	0x004c	; ????
    2a00:	51 00       	.word	0x0051	; ????
    2a02:	56 00       	.word	0x0056	; ????
    2a04:	5b 00       	.word	0x005b	; ????
    2a06:	60 00       	.word	0x0060	; ????
    2a08:	66 00       	.word	0x0066	; ????
    2a0a:	6c 00       	.word	0x006c	; ????
    2a0c:	73 00       	.word	0x0073	; ????
    2a0e:	79 00       	.word	0x0079	; ????
    2a10:	81 00       	.word	0x0081	; ????
    2a12:	88 00       	.word	0x0088	; ????
    2a14:	90 00       	.word	0x0090	; ????
    2a16:	99 00       	.word	0x0099	; ????
    2a18:	a2 00       	.word	0x00a2	; ????
    2a1a:	ac 00       	.word	0x00ac	; ????
    2a1c:	b6 00       	.word	0x00b6	; ????
    2a1e:	c1 00       	.word	0x00c1	; ????
    2a20:	cc 00       	.word	0x00cc	; ????
    2a22:	d8 00       	.word	0x00d8	; ????
    2a24:	e5 00       	.word	0x00e5	; ????
    2a26:	f3 00       	.word	0x00f3	; ????
    2a28:	01 01       	movw	r0, r2
    2a2a:	10 01       	movw	r2, r0
    2a2c:	21 01       	movw	r4, r2
    2a2e:	32 01       	movw	r6, r4
    2a30:	44 01       	movw	r8, r8
    2a32:	57 01       	movw	r10, r14
    2a34:	6c 01       	movw	r12, r24
    2a36:	81 01       	movw	r16, r2
    2a38:	98 01       	movw	r18, r16
    2a3a:	b0 01       	movw	r22, r0
    2a3c:	ca 01       	movw	r24, r20
    2a3e:	e5 01       	movw	r28, r10
    2a40:	02 02       	muls	r16, r18
    2a42:	21 02       	muls	r18, r17
    2a44:	41 02       	muls	r20, r17
    2a46:	64 02       	muls	r22, r20
    2a48:	88 02       	muls	r24, r24
    2a4a:	ae 02       	muls	r26, r30
    2a4c:	d7 02       	muls	r29, r23
    2a4e:	03 03       	mulsu	r16, r19
    2a50:	30 03       	mulsu	r19, r16
    2a52:	61 03       	mulsu	r22, r17
    2a54:	94 03       	fmuls	r17, r20
    2a56:	cb 03       	fmulsu	r20, r19
    2a58:	05 04       	cpc	r0, r5
    2a5a:	42 04       	cpc	r4, r2
    2a5c:	83 04       	cpc	r8, r3
    2a5e:	c7 04       	cpc	r12, r7
    2a60:	10 05       	cpc	r17, r0
    2a62:	5d 05       	cpc	r21, r13
    2a64:	af 05       	cpc	r26, r15
    2a66:	05 06       	cpc	r0, r21
    2a68:	61 06       	cpc	r6, r17
    2a6a:	c2 06       	cpc	r12, r18
    2a6c:	29 07       	cpc	r18, r25
    2a6e:	96 07       	cpc	r25, r22
    2a70:	09 08       	sbc	r0, r9
    2a72:	83 08       	sbc	r8, r3
    2a74:	05 09       	sbc	r16, r5
    2a76:	8e 09       	sbc	r24, r14
    2a78:	20 0a       	sbc	r2, r16
    2a7a:	ba 0a       	sbc	r11, r26
    2a7c:	5d 0b       	sbc	r21, r29
    2a7e:	0a 0c       	add	r0, r10
    2a80:	c1 0c       	add	r12, r1
    2a82:	84 0d       	add	r24, r4
    2a84:	51 0e       	add	r5, r17
    2a86:	2b 0f       	add	r18, r27
    2a88:	12 10       	cpse	r1, r2
    2a8a:	07 11       	cpse	r16, r7
    2a8c:	0a 12       	cpse	r0, r26
    2a8e:	1d 13       	cpse	r17, r29
    2a90:	40 14       	cp	r4, r0
    2a92:	74 15       	cp	r23, r4
    2a94:	ba 16       	cp	r11, r26
    2a96:	14 18       	sub	r1, r4
    2a98:	83 19       	sub	r24, r3
    2a9a:	07 1b       	sub	r16, r23
    2a9c:	a3 1c       	adc	r10, r3
    2a9e:	57 1e       	adc	r5, r23
    2aa0:	24 20       	and	r2, r4
    2aa2:	0e 22       	and	r0, r30
    2aa4:	14 24       	eor	r1, r4
    2aa6:	39 26       	eor	r3, r25
    2aa8:	7f 28       	or	r7, r15
    2aaa:	e8 2a       	or	r14, r24
    2aac:	75 2d       	mov	r23, r5
    2aae:	29 30       	cpi	r18, 0x09	; 9
    2ab0:	06 33       	cpi	r16, 0x36	; 54
    2ab2:	0f 36       	cpi	r16, 0x6F	; 111
    2ab4:	45 39       	cpi	r20, 0x95	; 149
    2ab6:	ad 3c       	cpi	r26, 0xCD	; 205
    2ab8:	49 40       	sbci	r20, 0x09	; 9
    2aba:	1b 44       	sbci	r17, 0x4B	; 75
    2abc:	28 48       	sbci	r18, 0x88	; 136
    2abe:	73 4c       	sbci	r23, 0xC3	; 195
    2ac0:	fe 50       	subi	r31, 0x0E	; 14
    2ac2:	cf 55       	subi	r28, 0x5F	; 95
    2ac4:	ea 5a       	subi	r30, 0xAA	; 170
    2ac6:	51 60       	ori	r21, 0x01	; 1
    2ac8:	0c 66       	ori	r16, 0x6C	; 108
    2aca:	1d 6c       	ori	r17, 0xCD	; 205
    2acc:	8b 72       	andi	r24, 0x2B	; 43
    2ace:	5a 79       	andi	r21, 0x9A	; 154
    2ad0:	92 80       	ldd	r9, Z+2	; 0x02
    2ad2:	37 88       	ldd	r3, Z+23	; 0x17
    2ad4:	50 90 e5 98 	lds	r5, 0x98E5	; 0x8098e5 <__bss_end+0x8f2d>
    2ad8:	fd a1       	ldd	r31, Y+37	; 0x25
    2ada:	9f ab       	std	Y+55, r25	; 0x37
    2adc:	d3 b5       	in	r29, 0x23	; 35
    2ade:	a3 c0       	rjmp	.+326    	; 0x2c26 <waves+0x126>
	...

00002b00 <waves>:
    2b00:	00 03       	mulsu	r16, r16
    2b02:	06 09       	sbc	r16, r6
    2b04:	0c 10       	cpse	r0, r12
    2b06:	13 16       	cp	r1, r19
    2b08:	19 1c       	adc	r1, r9
    2b0a:	1f 22       	and	r1, r31
    2b0c:	25 28       	or	r2, r5
    2b0e:	2b 2e       	mov	r2, r27
    2b10:	31 33       	cpi	r19, 0x31	; 49
    2b12:	36 39       	cpi	r19, 0x96	; 150
    2b14:	3c 3f       	cpi	r19, 0xFC	; 252
    2b16:	41 44       	sbci	r20, 0x41	; 65
    2b18:	47 49       	sbci	r20, 0x97	; 151
    2b1a:	4c 4e       	sbci	r20, 0xEC	; 236
    2b1c:	51 53       	subi	r21, 0x31	; 49
    2b1e:	55 58       	subi	r21, 0x85	; 133
    2b20:	5a 5c       	subi	r21, 0xCA	; 202
    2b22:	5e 60       	ori	r21, 0x0E	; 14
    2b24:	62 64       	ori	r22, 0x42	; 66
    2b26:	66 68       	ori	r22, 0x86	; 134
    2b28:	6a 6b       	ori	r22, 0xBA	; 186
    2b2a:	6d 6f       	ori	r22, 0xFD	; 253
    2b2c:	70 71       	andi	r23, 0x10	; 16
    2b2e:	73 74       	andi	r23, 0x43	; 67
    2b30:	75 76       	andi	r23, 0x65	; 101
    2b32:	78 79       	andi	r23, 0x98	; 152
    2b34:	7a 7a       	andi	r23, 0xAA	; 170
    2b36:	7b 7c       	andi	r23, 0xCB	; 203
    2b38:	7d 7d       	andi	r23, 0xDD	; 221
    2b3a:	7e 7e       	andi	r23, 0xEE	; 238
    2b3c:	7e 7f       	andi	r23, 0xFE	; 254
    2b3e:	7f 7f       	andi	r23, 0xFF	; 255
    2b40:	7f 7f       	andi	r23, 0xFF	; 255
    2b42:	7f 7f       	andi	r23, 0xFF	; 255
    2b44:	7e 7e       	andi	r23, 0xEE	; 238
    2b46:	7e 7d       	andi	r23, 0xDE	; 222
    2b48:	7d 7c       	andi	r23, 0xCD	; 205
    2b4a:	7b 7a       	andi	r23, 0xAB	; 171
    2b4c:	7a 79       	andi	r23, 0x9A	; 154
    2b4e:	78 76       	andi	r23, 0x68	; 104
    2b50:	75 74       	andi	r23, 0x45	; 69
    2b52:	73 71       	andi	r23, 0x13	; 19
    2b54:	70 6f       	ori	r23, 0xF0	; 240
    2b56:	6d 6b       	ori	r22, 0xBD	; 189
    2b58:	6a 68       	ori	r22, 0x8A	; 138
    2b5a:	66 64       	ori	r22, 0x46	; 70
    2b5c:	62 60       	ori	r22, 0x02	; 2
    2b5e:	5e 5c       	subi	r21, 0xCE	; 206
    2b60:	5a 58       	subi	r21, 0x8A	; 138
    2b62:	55 53       	subi	r21, 0x35	; 53
    2b64:	51 4e       	sbci	r21, 0xE1	; 225
    2b66:	4c 49       	sbci	r20, 0x9C	; 156
    2b68:	47 44       	sbci	r20, 0x47	; 71
    2b6a:	41 3f       	cpi	r20, 0xF1	; 241
    2b6c:	3c 39       	cpi	r19, 0x9C	; 156
    2b6e:	36 33       	cpi	r19, 0x36	; 54
    2b70:	31 2e       	mov	r3, r17
    2b72:	2b 28       	or	r2, r11
    2b74:	25 22       	and	r2, r21
    2b76:	1f 1c       	adc	r1, r15
    2b78:	19 16       	cp	r1, r25
    2b7a:	13 10       	cpse	r1, r3
    2b7c:	0c 09       	sbc	r16, r12
    2b7e:	06 03       	mulsu	r16, r22
    2b80:	00 fd       	sbrc	r16, 0
    2b82:	fa f7       	brpl	.-2      	; 0x2b82 <waves+0x82>
    2b84:	f4 f0       	brlt	.+60     	; 0x2bc2 <waves+0xc2>
    2b86:	ed ea       	ldi	r30, 0xAD	; 173
    2b88:	e7 e4       	ldi	r30, 0x47	; 71
    2b8a:	e1 de       	rcall	.-574    	; 0x294e <TriggerNote+0x54>
    2b8c:	db d8       	rcall	.-3658   	; 0x1d44 <mode1_loop+0x4>
    2b8e:	d5 d2       	rcall	.+1450   	; 0x313a <waves+0x63a>
    2b90:	cf cd       	rjmp	.-1122   	; 0x2730 <ProcessMusic+0x2d0>
    2b92:	ca c7       	rjmp	.+3988   	; 0x3b28 <draw+0xd0>
    2b94:	c4 c1       	rjmp	.+904    	; 0x2f1e <waves+0x41e>
    2b96:	bf bc       	out	0x2f, r11	; 47
    2b98:	b9 b7       	in	r27, 0x39	; 57
    2b9a:	b4 b2       	in	r11, 0x14	; 20
    2b9c:	af ad       	ldd	r26, Y+63	; 0x3f
    2b9e:	ab a8       	ldd	r10, Y+51	; 0x33
    2ba0:	a6 a4       	ldd	r10, Z+46	; 0x2e
    2ba2:	a2 a0       	ldd	r10, Z+34	; 0x22
    2ba4:	9e 9c       	mul	r9, r14
    2ba6:	9a 98       	cbi	0x13, 2	; 19
    2ba8:	96 95       	lsr	r25
    2baa:	93 91       	.word	0x9193	; ????
    2bac:	90 8f       	std	Z+24, r25	; 0x18
    2bae:	8d 8c       	ldd	r8, Y+29	; 0x1d
    2bb0:	8b 8a       	std	Y+19, r8	; 0x13
    2bb2:	88 87       	std	Y+8, r24	; 0x08
    2bb4:	86 86       	std	Z+14, r8	; 0x0e
    2bb6:	85 84       	ldd	r8, Z+13	; 0x0d
    2bb8:	83 83       	std	Z+3, r24	; 0x03
    2bba:	82 82       	std	Z+2, r8	; 0x02
    2bbc:	82 81       	ldd	r24, Z+2	; 0x02
    2bbe:	81 81       	ldd	r24, Z+1	; 0x01
    2bc0:	81 81       	ldd	r24, Z+1	; 0x01
    2bc2:	81 81       	ldd	r24, Z+1	; 0x01
    2bc4:	82 82       	std	Z+2, r8	; 0x02
    2bc6:	82 83       	std	Z+2, r24	; 0x02
    2bc8:	83 84       	ldd	r8, Z+11	; 0x0b
    2bca:	85 86       	std	Z+13, r8	; 0x0d
    2bcc:	86 87       	std	Z+14, r24	; 0x0e
    2bce:	88 8a       	std	Y+16, r8	; 0x10
    2bd0:	8b 8c       	ldd	r8, Y+27	; 0x1b
    2bd2:	8d 8f       	std	Y+29, r24	; 0x1d
    2bd4:	90 91 93 95 	lds	r25, 0x9593	; 0x809593 <__bss_end+0x8bdb>
    2bd8:	96 98       	cbi	0x12, 6	; 18
    2bda:	9a 9c       	mul	r9, r10
    2bdc:	9e a0       	ldd	r9, Y+38	; 0x26
    2bde:	a2 a4       	ldd	r10, Z+42	; 0x2a
    2be0:	a6 a8       	ldd	r10, Z+54	; 0x36
    2be2:	ab ad       	ldd	r26, Y+59	; 0x3b
    2be4:	af b2       	in	r10, 0x1f	; 31
    2be6:	b4 b7       	in	r27, 0x34	; 52
    2be8:	b9 bc       	out	0x29, r11	; 41
    2bea:	bf c1       	rjmp	.+894    	; 0x2f6a <waves+0x46a>
    2bec:	c4 c7       	rjmp	.+3976   	; 0x3b76 <draw+0x11e>
    2bee:	ca cd       	rjmp	.-1132   	; 0x2784 <ProcessMusic+0x324>
    2bf0:	cf d2       	rcall	.+1438   	; 0x3190 <waves+0x690>
    2bf2:	d5 d8       	rcall	.-3670   	; 0x1d9e <__vector_13+0x2e>
    2bf4:	db de       	rcall	.-586    	; 0x29ac <SetMixerWave+0x4>
    2bf6:	e1 e4       	ldi	r30, 0x41	; 65
    2bf8:	e7 ea       	ldi	r30, 0xA7	; 167
    2bfa:	ed f0       	brhs	.+58     	; 0x2c36 <waves+0x136>
    2bfc:	f4 f7       	brge	.-4      	; 0x2bfa <waves+0xfa>
    2bfe:	fa fd       	.word	0xfdfa	; ????
    2c00:	80 81       	ld	r24, Z
    2c02:	82 83       	std	Z+2, r24	; 0x02
    2c04:	84 85       	ldd	r24, Z+12	; 0x0c
    2c06:	86 87       	std	Z+14, r24	; 0x0e
    2c08:	88 89       	ldd	r24, Y+16	; 0x10
    2c0a:	8a 8b       	std	Y+18, r24	; 0x12
    2c0c:	8c 8d       	ldd	r24, Y+28	; 0x1c
    2c0e:	8e 8f       	std	Y+30, r24	; 0x1e
    2c10:	90 91 92 93 	lds	r25, 0x9392	; 0x809392 <__bss_end+0x89da>
    2c14:	94 95       	.word	0x9594	; ????
    2c16:	96 97       	sbiw	r26, 0x26	; 38
    2c18:	98 99       	sbic	0x13, 0	; 19
    2c1a:	9a 9b       	sbis	0x13, 2	; 19
    2c1c:	9c 9d       	mul	r25, r12
    2c1e:	9e 9f       	mul	r25, r30
    2c20:	a0 a1       	ldd	r26, Z+32	; 0x20
    2c22:	a2 a3       	std	Z+34, r26	; 0x22
    2c24:	a4 a5       	ldd	r26, Z+44	; 0x2c
    2c26:	a6 a7       	std	Z+46, r26	; 0x2e
    2c28:	a8 a9       	ldd	r26, Y+48	; 0x30
    2c2a:	aa ab       	std	Y+50, r26	; 0x32
    2c2c:	ac ad       	ldd	r26, Y+60	; 0x3c
    2c2e:	ae af       	std	Y+62, r26	; 0x3e
    2c30:	b0 b1       	in	r27, 0x00	; 0
    2c32:	b2 b3       	in	r27, 0x12	; 18
    2c34:	b4 b5       	in	r27, 0x24	; 36
    2c36:	b6 b7       	in	r27, 0x36	; 54
    2c38:	b8 b9       	out	0x08, r27	; 8
    2c3a:	ba bb       	out	0x1a, r27	; 26
    2c3c:	bc bd       	out	0x2c, r27	; 44
    2c3e:	be bf       	out	0x3e, r27	; 62
    2c40:	c0 c1       	rjmp	.+896    	; 0x2fc2 <waves+0x4c2>
    2c42:	c2 c3       	rjmp	.+1924   	; 0x33c8 <waves+0x8c8>
    2c44:	c4 c5       	rjmp	.+2952   	; 0x37ce <update+0xac>
    2c46:	c6 c7       	rjmp	.+3980   	; 0x3bd4 <checkCollision+0x3c>
    2c48:	c8 c9       	rjmp	.-3184   	; 0x1fda <end_set_bank+0x76>
    2c4a:	ca cb       	rjmp	.-2156   	; 0x23e0 <PatchCommand11+0x56>
    2c4c:	cc cd       	rjmp	.-1128   	; 0x27e6 <ProcessMusic+0x386>
    2c4e:	ce cf       	rjmp	.-100    	; 0x2bec <waves+0xec>
    2c50:	d0 d1       	rcall	.+928    	; 0x2ff2 <waves+0x4f2>
    2c52:	d2 d3       	rcall	.+1956   	; 0x33f8 <waves+0x8f8>
    2c54:	d4 d5       	rcall	.+2984   	; 0x37fe <update+0xdc>
    2c56:	d6 d7       	rcall	.+4012   	; 0x3c04 <MoveHero+0x1e>
    2c58:	d8 d9       	rcall	.-3152   	; 0x200a <mix_loop+0x12>
    2c5a:	da db       	rcall	.-2124   	; 0x2410 <PatchCommand14+0x4>
    2c5c:	dc dd       	rcall	.-1096   	; 0x2816 <ReadVarLen+0x4>
    2c5e:	de df       	rcall	.-68     	; 0x2c1c <waves+0x11c>
    2c60:	e0 e1       	ldi	r30, 0x10	; 16
    2c62:	e2 e3       	ldi	r30, 0x32	; 50
    2c64:	e4 e5       	ldi	r30, 0x54	; 84
    2c66:	e6 e7       	ldi	r30, 0x76	; 118
    2c68:	e8 e9       	ldi	r30, 0x98	; 152
    2c6a:	ea eb       	ldi	r30, 0xBA	; 186
    2c6c:	ec ed       	ldi	r30, 0xDC	; 220
    2c6e:	ee ef       	ldi	r30, 0xFE	; 254
    2c70:	f0 f1       	brcs	.+124    	; 0x2cee <waves+0x1ee>
    2c72:	f2 f3       	brmi	.-4      	; 0x2c70 <waves+0x170>
    2c74:	f4 f5       	brge	.+124    	; 0x2cf2 <waves+0x1f2>
    2c76:	f6 f7       	brtc	.-4      	; 0x2c74 <waves+0x174>
    2c78:	f8 f9       	.word	0xf9f8	; ????
    2c7a:	fa fb       	.word	0xfbfa	; ????
    2c7c:	fc fd       	.word	0xfdfc	; ????
    2c7e:	fe ff       	.word	0xfffe	; ????
    2c80:	00 01       	movw	r0, r0
    2c82:	02 03       	mulsu	r16, r18
    2c84:	04 05       	cpc	r16, r4
    2c86:	06 07       	cpc	r16, r22
    2c88:	08 09       	sbc	r16, r8
    2c8a:	0a 0b       	sbc	r16, r26
    2c8c:	0c 0d       	add	r16, r12
    2c8e:	0e 0f       	add	r16, r30
    2c90:	10 11       	cpse	r17, r0
    2c92:	12 13       	cpse	r17, r18
    2c94:	14 15       	cp	r17, r4
    2c96:	16 17       	cp	r17, r22
    2c98:	18 19       	sub	r17, r8
    2c9a:	1a 1b       	sub	r17, r26
    2c9c:	1c 1d       	adc	r17, r12
    2c9e:	1e 1f       	adc	r17, r30
    2ca0:	20 21       	and	r18, r0
    2ca2:	22 23       	and	r18, r18
    2ca4:	24 25       	eor	r18, r4
    2ca6:	26 27       	eor	r18, r22
    2ca8:	28 29       	or	r18, r8
    2caa:	2a 2b       	or	r18, r26
    2cac:	2c 2d       	mov	r18, r12
    2cae:	2e 2f       	mov	r18, r30
    2cb0:	30 31       	cpi	r19, 0x10	; 16
    2cb2:	32 33       	cpi	r19, 0x32	; 50
    2cb4:	34 35       	cpi	r19, 0x54	; 84
    2cb6:	36 37       	cpi	r19, 0x76	; 118
    2cb8:	38 39       	cpi	r19, 0x98	; 152
    2cba:	3a 3b       	cpi	r19, 0xBA	; 186
    2cbc:	3c 3d       	cpi	r19, 0xDC	; 220
    2cbe:	3e 3f       	cpi	r19, 0xFE	; 254
    2cc0:	40 41       	sbci	r20, 0x10	; 16
    2cc2:	42 43       	sbci	r20, 0x32	; 50
    2cc4:	44 45       	sbci	r20, 0x54	; 84
    2cc6:	46 47       	sbci	r20, 0x76	; 118
    2cc8:	48 49       	sbci	r20, 0x98	; 152
    2cca:	4a 4b       	sbci	r20, 0xBA	; 186
    2ccc:	4c 4d       	sbci	r20, 0xDC	; 220
    2cce:	4e 4f       	sbci	r20, 0xFE	; 254
    2cd0:	50 51       	subi	r21, 0x10	; 16
    2cd2:	52 53       	subi	r21, 0x32	; 50
    2cd4:	54 55       	subi	r21, 0x54	; 84
    2cd6:	56 57       	subi	r21, 0x76	; 118
    2cd8:	58 59       	subi	r21, 0x98	; 152
    2cda:	5a 5b       	subi	r21, 0xBA	; 186
    2cdc:	5c 5d       	subi	r21, 0xDC	; 220
    2cde:	5e 5f       	subi	r21, 0xFE	; 254
    2ce0:	60 61       	ori	r22, 0x10	; 16
    2ce2:	62 63       	ori	r22, 0x32	; 50
    2ce4:	64 65       	ori	r22, 0x54	; 84
    2ce6:	66 67       	ori	r22, 0x76	; 118
    2ce8:	68 69       	ori	r22, 0x98	; 152
    2cea:	6a 6b       	ori	r22, 0xBA	; 186
    2cec:	6c 6d       	ori	r22, 0xDC	; 220
    2cee:	6e 6f       	ori	r22, 0xFE	; 254
    2cf0:	70 71       	andi	r23, 0x10	; 16
    2cf2:	72 73       	andi	r23, 0x32	; 50
    2cf4:	74 75       	andi	r23, 0x54	; 84
    2cf6:	76 77       	andi	r23, 0x76	; 118
    2cf8:	78 79       	andi	r23, 0x98	; 152
    2cfa:	7a 7b       	andi	r23, 0xBA	; 186
    2cfc:	7c 7d       	andi	r23, 0xDC	; 220
    2cfe:	7e 7f       	andi	r23, 0xFE	; 254
    2d00:	00 02       	muls	r16, r16
    2d02:	04 06       	cpc	r0, r20
    2d04:	08 0a       	sbc	r0, r24
    2d06:	0c 0e       	add	r0, r28
    2d08:	10 12       	cpse	r1, r16
    2d0a:	14 16       	cp	r1, r20
    2d0c:	18 1a       	sub	r1, r24
    2d0e:	1c 1e       	adc	r1, r28
    2d10:	20 22       	and	r2, r16
    2d12:	24 26       	eor	r2, r20
    2d14:	28 2a       	or	r2, r24
    2d16:	2c 2e       	mov	r2, r28
    2d18:	30 32       	cpi	r19, 0x20	; 32
    2d1a:	34 36       	cpi	r19, 0x64	; 100
    2d1c:	38 3a       	cpi	r19, 0xA8	; 168
    2d1e:	3c 3e       	cpi	r19, 0xEC	; 236
    2d20:	40 42       	sbci	r20, 0x20	; 32
    2d22:	44 46       	sbci	r20, 0x64	; 100
    2d24:	48 4a       	sbci	r20, 0xA8	; 168
    2d26:	4c 4e       	sbci	r20, 0xEC	; 236
    2d28:	50 52       	subi	r21, 0x20	; 32
    2d2a:	54 56       	subi	r21, 0x64	; 100
    2d2c:	58 5a       	subi	r21, 0xA8	; 168
    2d2e:	5c 5e       	subi	r21, 0xEC	; 236
    2d30:	60 62       	ori	r22, 0x20	; 32
    2d32:	64 66       	ori	r22, 0x64	; 100
    2d34:	68 6a       	ori	r22, 0xA8	; 168
    2d36:	6c 6e       	ori	r22, 0xEC	; 236
    2d38:	70 72       	andi	r23, 0x20	; 32
    2d3a:	74 76       	andi	r23, 0x64	; 100
    2d3c:	78 7a       	andi	r23, 0xA8	; 168
    2d3e:	7c 7e       	andi	r23, 0xEC	; 236
    2d40:	7f 7d       	andi	r23, 0xDF	; 223
    2d42:	7b 79       	andi	r23, 0x9B	; 155
    2d44:	77 75       	andi	r23, 0x57	; 87
    2d46:	73 71       	andi	r23, 0x13	; 19
    2d48:	6f 6d       	ori	r22, 0xDF	; 223
    2d4a:	6b 69       	ori	r22, 0x9B	; 155
    2d4c:	67 65       	ori	r22, 0x57	; 87
    2d4e:	63 61       	ori	r22, 0x13	; 19
    2d50:	5f 5d       	subi	r21, 0xDF	; 223
    2d52:	5b 59       	subi	r21, 0x9B	; 155
    2d54:	57 55       	subi	r21, 0x57	; 87
    2d56:	53 51       	subi	r21, 0x13	; 19
    2d58:	4f 4d       	sbci	r20, 0xDF	; 223
    2d5a:	4b 49       	sbci	r20, 0x9B	; 155
    2d5c:	47 45       	sbci	r20, 0x57	; 87
    2d5e:	43 41       	sbci	r20, 0x13	; 19
    2d60:	3f 3d       	cpi	r19, 0xDF	; 223
    2d62:	3b 39       	cpi	r19, 0x9B	; 155
    2d64:	37 35       	cpi	r19, 0x57	; 87
    2d66:	33 31       	cpi	r19, 0x13	; 19
    2d68:	2f 2d       	mov	r18, r15
    2d6a:	2b 29       	or	r18, r11
    2d6c:	27 25       	eor	r18, r7
    2d6e:	23 21       	and	r18, r3
    2d70:	1f 1d       	adc	r17, r15
    2d72:	1b 19       	sub	r17, r11
    2d74:	17 15       	cp	r17, r7
    2d76:	13 11       	cpse	r17, r3
    2d78:	0f 0d       	add	r16, r15
    2d7a:	0b 09       	sbc	r16, r11
    2d7c:	07 05       	cpc	r16, r7
    2d7e:	03 01       	movw	r0, r6
    2d80:	ff fd       	.word	0xfdff	; ????
    2d82:	fb f9       	.word	0xf9fb	; ????
    2d84:	f7 f5       	brid	.+124    	; 0x2e02 <waves+0x302>
    2d86:	f3 f1       	brvs	.+124    	; 0x2e04 <waves+0x304>
    2d88:	ef ed       	ldi	r30, 0xDF	; 223
    2d8a:	eb e9       	ldi	r30, 0x9B	; 155
    2d8c:	e7 e5       	ldi	r30, 0x57	; 87
    2d8e:	e3 e1       	ldi	r30, 0x13	; 19
    2d90:	df dd       	rcall	.-1090   	; 0x2950 <TriggerNote+0x56>
    2d92:	db d9       	rcall	.-3146   	; 0x214a <ClearVram>
    2d94:	d7 d5       	rcall	.+2990   	; 0x3944 <update+0x222>
    2d96:	d3 d1       	rcall	.+934    	; 0x313e <waves+0x63e>
    2d98:	cf cd       	rjmp	.-1122   	; 0x2938 <TriggerNote+0x3e>
    2d9a:	cb c9       	rjmp	.-3178   	; 0x2132 <update_sound+0x3e>
    2d9c:	c7 c5       	rjmp	.+2958   	; 0x392c <update+0x20a>
    2d9e:	c3 c1       	rjmp	.+902    	; 0x3126 <waves+0x626>
    2da0:	bf bd       	out	0x2f, r27	; 47
    2da2:	bb b9       	out	0x0b, r27	; 11
    2da4:	b7 b5       	in	r27, 0x27	; 39
    2da6:	b3 b1       	in	r27, 0x03	; 3
    2da8:	af ad       	ldd	r26, Y+63	; 0x3f
    2daa:	ab a9       	ldd	r26, Y+51	; 0x33
    2dac:	a7 a5       	ldd	r26, Z+47	; 0x2f
    2dae:	a3 a1       	ldd	r26, Z+35	; 0x23
    2db0:	9f 9d       	mul	r25, r15
    2db2:	9b 99       	sbic	0x13, 3	; 19
    2db4:	97 95       	ror	r25
    2db6:	93 91       	.word	0x9193	; ????
    2db8:	8f 8d       	ldd	r24, Y+31	; 0x1f
    2dba:	8b 89       	ldd	r24, Y+19	; 0x13
    2dbc:	87 85       	ldd	r24, Z+15	; 0x0f
    2dbe:	83 81       	ldd	r24, Z+3	; 0x03
    2dc0:	80 82       	st	Z, r8
    2dc2:	84 86       	std	Z+12, r8	; 0x0c
    2dc4:	88 8a       	std	Y+16, r8	; 0x10
    2dc6:	8c 8e       	std	Y+28, r8	; 0x1c
    2dc8:	90 92 94 96 	sts	0x9694, r9	; 0x809694 <__bss_end+0x8cdc>
    2dcc:	98 9a       	sbi	0x13, 0	; 19
    2dce:	9c 9e       	mul	r9, r28
    2dd0:	a0 a2       	std	Z+32, r10	; 0x20
    2dd2:	a4 a6       	std	Z+44, r10	; 0x2c
    2dd4:	a8 aa       	std	Y+48, r10	; 0x30
    2dd6:	ac ae       	std	Y+60, r10	; 0x3c
    2dd8:	b0 b2       	in	r11, 0x10	; 16
    2dda:	b4 b6       	in	r11, 0x34	; 52
    2ddc:	b8 ba       	out	0x18, r11	; 24
    2dde:	bc be       	out	0x3c, r11	; 60
    2de0:	c0 c2       	rjmp	.+1408   	; 0x3362 <waves+0x862>
    2de2:	c4 c6       	rjmp	.+3464   	; 0x3b6c <draw+0x114>
    2de4:	c8 ca       	rjmp	.-2672   	; 0x2376 <PatchCommand08+0x18>
    2de6:	cc ce       	rjmp	.-616    	; 0x2b80 <waves+0x80>
    2de8:	d0 d2       	rcall	.+1440   	; 0x338a <waves+0x88a>
    2dea:	d4 d6       	rcall	.+3496   	; 0x3b94 <draw+0x13c>
    2dec:	d8 da       	rcall	.-2640   	; 0x239e <PatchCommand11+0x14>
    2dee:	dc de       	rcall	.-584    	; 0x2ba8 <waves+0xa8>
    2df0:	e0 e2       	ldi	r30, 0x20	; 32
    2df2:	e4 e6       	ldi	r30, 0x64	; 100
    2df4:	e8 ea       	ldi	r30, 0xA8	; 168
    2df6:	ec ee       	ldi	r30, 0xEC	; 236
    2df8:	f0 f2       	brcs	.-68     	; 0x2db6 <waves+0x2b6>
    2dfa:	f4 f6       	brge	.-68     	; 0x2db8 <waves+0x2b8>
    2dfc:	f8 fa       	.word	0xfaf8	; ????
    2dfe:	fc fe       	.word	0xfefc	; ????
    2e00:	7f 7f       	andi	r23, 0xFF	; 255
    2e02:	7f 7f       	andi	r23, 0xFF	; 255
    2e04:	7f 7f       	andi	r23, 0xFF	; 255
    2e06:	7f 7f       	andi	r23, 0xFF	; 255
    2e08:	7f 7f       	andi	r23, 0xFF	; 255
    2e0a:	7f 7f       	andi	r23, 0xFF	; 255
    2e0c:	7f 7f       	andi	r23, 0xFF	; 255
    2e0e:	7f 7f       	andi	r23, 0xFF	; 255
    2e10:	7f 7f       	andi	r23, 0xFF	; 255
    2e12:	7f 7f       	andi	r23, 0xFF	; 255
    2e14:	7f 7f       	andi	r23, 0xFF	; 255
    2e16:	7f 7f       	andi	r23, 0xFF	; 255
    2e18:	7f 7f       	andi	r23, 0xFF	; 255
    2e1a:	7f 7f       	andi	r23, 0xFF	; 255
    2e1c:	7f 7f       	andi	r23, 0xFF	; 255
    2e1e:	7f 7f       	andi	r23, 0xFF	; 255
    2e20:	7f 7f       	andi	r23, 0xFF	; 255
    2e22:	7f 7f       	andi	r23, 0xFF	; 255
    2e24:	7f 7f       	andi	r23, 0xFF	; 255
    2e26:	7f 7f       	andi	r23, 0xFF	; 255
    2e28:	7f 7f       	andi	r23, 0xFF	; 255
    2e2a:	7f 7f       	andi	r23, 0xFF	; 255
    2e2c:	7f 7f       	andi	r23, 0xFF	; 255
    2e2e:	7f 7f       	andi	r23, 0xFF	; 255
    2e30:	7f 7f       	andi	r23, 0xFF	; 255
    2e32:	7f 7f       	andi	r23, 0xFF	; 255
    2e34:	7f 7f       	andi	r23, 0xFF	; 255
    2e36:	7f 7f       	andi	r23, 0xFF	; 255
    2e38:	7f 7f       	andi	r23, 0xFF	; 255
    2e3a:	7f 7f       	andi	r23, 0xFF	; 255
    2e3c:	7f 7f       	andi	r23, 0xFF	; 255
    2e3e:	7f 7f       	andi	r23, 0xFF	; 255
    2e40:	80 80       	ld	r8, Z
    2e42:	80 80       	ld	r8, Z
    2e44:	80 80       	ld	r8, Z
    2e46:	80 80       	ld	r8, Z
    2e48:	80 80       	ld	r8, Z
    2e4a:	80 80       	ld	r8, Z
    2e4c:	80 80       	ld	r8, Z
    2e4e:	80 80       	ld	r8, Z
    2e50:	80 80       	ld	r8, Z
    2e52:	80 80       	ld	r8, Z
    2e54:	80 80       	ld	r8, Z
    2e56:	80 80       	ld	r8, Z
    2e58:	80 80       	ld	r8, Z
    2e5a:	80 80       	ld	r8, Z
    2e5c:	80 80       	ld	r8, Z
    2e5e:	80 80       	ld	r8, Z
    2e60:	80 80       	ld	r8, Z
    2e62:	80 80       	ld	r8, Z
    2e64:	80 80       	ld	r8, Z
    2e66:	80 80       	ld	r8, Z
    2e68:	80 80       	ld	r8, Z
    2e6a:	80 80       	ld	r8, Z
    2e6c:	80 80       	ld	r8, Z
    2e6e:	80 80       	ld	r8, Z
    2e70:	80 80       	ld	r8, Z
    2e72:	80 80       	ld	r8, Z
    2e74:	80 80       	ld	r8, Z
    2e76:	80 80       	ld	r8, Z
    2e78:	80 80       	ld	r8, Z
    2e7a:	80 80       	ld	r8, Z
    2e7c:	80 80       	ld	r8, Z
    2e7e:	80 80       	ld	r8, Z
    2e80:	80 80       	ld	r8, Z
    2e82:	80 80       	ld	r8, Z
    2e84:	80 80       	ld	r8, Z
    2e86:	80 80       	ld	r8, Z
    2e88:	80 80       	ld	r8, Z
    2e8a:	80 80       	ld	r8, Z
    2e8c:	80 80       	ld	r8, Z
    2e8e:	80 80       	ld	r8, Z
    2e90:	80 80       	ld	r8, Z
    2e92:	80 80       	ld	r8, Z
    2e94:	80 80       	ld	r8, Z
    2e96:	80 80       	ld	r8, Z
    2e98:	80 80       	ld	r8, Z
    2e9a:	80 80       	ld	r8, Z
    2e9c:	80 80       	ld	r8, Z
    2e9e:	80 80       	ld	r8, Z
    2ea0:	80 80       	ld	r8, Z
    2ea2:	80 80       	ld	r8, Z
    2ea4:	80 80       	ld	r8, Z
    2ea6:	80 80       	ld	r8, Z
    2ea8:	80 80       	ld	r8, Z
    2eaa:	80 80       	ld	r8, Z
    2eac:	80 80       	ld	r8, Z
    2eae:	80 80       	ld	r8, Z
    2eb0:	80 80       	ld	r8, Z
    2eb2:	80 80       	ld	r8, Z
    2eb4:	80 80       	ld	r8, Z
    2eb6:	80 80       	ld	r8, Z
    2eb8:	80 80       	ld	r8, Z
    2eba:	80 80       	ld	r8, Z
    2ebc:	80 80       	ld	r8, Z
    2ebe:	80 80       	ld	r8, Z
    2ec0:	80 80       	ld	r8, Z
    2ec2:	80 80       	ld	r8, Z
    2ec4:	80 80       	ld	r8, Z
    2ec6:	80 80       	ld	r8, Z
    2ec8:	80 80       	ld	r8, Z
    2eca:	80 80       	ld	r8, Z
    2ecc:	80 80       	ld	r8, Z
    2ece:	80 80       	ld	r8, Z
    2ed0:	80 80       	ld	r8, Z
    2ed2:	80 80       	ld	r8, Z
    2ed4:	80 80       	ld	r8, Z
    2ed6:	80 80       	ld	r8, Z
    2ed8:	80 80       	ld	r8, Z
    2eda:	80 80       	ld	r8, Z
    2edc:	80 80       	ld	r8, Z
    2ede:	80 80       	ld	r8, Z
    2ee0:	80 80       	ld	r8, Z
    2ee2:	80 80       	ld	r8, Z
    2ee4:	80 80       	ld	r8, Z
    2ee6:	80 80       	ld	r8, Z
    2ee8:	80 80       	ld	r8, Z
    2eea:	80 80       	ld	r8, Z
    2eec:	80 80       	ld	r8, Z
    2eee:	80 80       	ld	r8, Z
    2ef0:	80 80       	ld	r8, Z
    2ef2:	80 80       	ld	r8, Z
    2ef4:	80 80       	ld	r8, Z
    2ef6:	80 80       	ld	r8, Z
    2ef8:	80 80       	ld	r8, Z
    2efa:	80 80       	ld	r8, Z
    2efc:	80 80       	ld	r8, Z
    2efe:	80 80       	ld	r8, Z
    2f00:	7f 7f       	andi	r23, 0xFF	; 255
    2f02:	7f 7f       	andi	r23, 0xFF	; 255
    2f04:	7f 7f       	andi	r23, 0xFF	; 255
    2f06:	7f 7f       	andi	r23, 0xFF	; 255
    2f08:	7f 7f       	andi	r23, 0xFF	; 255
    2f0a:	7f 7f       	andi	r23, 0xFF	; 255
    2f0c:	7f 7f       	andi	r23, 0xFF	; 255
    2f0e:	7f 7f       	andi	r23, 0xFF	; 255
    2f10:	7f 7f       	andi	r23, 0xFF	; 255
    2f12:	7f 7f       	andi	r23, 0xFF	; 255
    2f14:	7f 7f       	andi	r23, 0xFF	; 255
    2f16:	7f 7f       	andi	r23, 0xFF	; 255
    2f18:	7f 7f       	andi	r23, 0xFF	; 255
    2f1a:	7f 7f       	andi	r23, 0xFF	; 255
    2f1c:	7f 7f       	andi	r23, 0xFF	; 255
    2f1e:	7f 7f       	andi	r23, 0xFF	; 255
    2f20:	7f 7f       	andi	r23, 0xFF	; 255
    2f22:	7f 7f       	andi	r23, 0xFF	; 255
    2f24:	7f 7f       	andi	r23, 0xFF	; 255
    2f26:	7f 7f       	andi	r23, 0xFF	; 255
    2f28:	7f 7f       	andi	r23, 0xFF	; 255
    2f2a:	7f 7f       	andi	r23, 0xFF	; 255
    2f2c:	7f 7f       	andi	r23, 0xFF	; 255
    2f2e:	7f 7f       	andi	r23, 0xFF	; 255
    2f30:	7f 7f       	andi	r23, 0xFF	; 255
    2f32:	7f 7f       	andi	r23, 0xFF	; 255
    2f34:	7f 7f       	andi	r23, 0xFF	; 255
    2f36:	7f 7f       	andi	r23, 0xFF	; 255
    2f38:	7f 7f       	andi	r23, 0xFF	; 255
    2f3a:	7f 7f       	andi	r23, 0xFF	; 255
    2f3c:	7f 7f       	andi	r23, 0xFF	; 255
    2f3e:	7f 7f       	andi	r23, 0xFF	; 255
    2f40:	7f 7f       	andi	r23, 0xFF	; 255
    2f42:	7f 7f       	andi	r23, 0xFF	; 255
    2f44:	7f 7f       	andi	r23, 0xFF	; 255
    2f46:	7f 7f       	andi	r23, 0xFF	; 255
    2f48:	7f 7f       	andi	r23, 0xFF	; 255
    2f4a:	7f 7f       	andi	r23, 0xFF	; 255
    2f4c:	7f 7f       	andi	r23, 0xFF	; 255
    2f4e:	7f 7f       	andi	r23, 0xFF	; 255
    2f50:	7f 7f       	andi	r23, 0xFF	; 255
    2f52:	7f 7f       	andi	r23, 0xFF	; 255
    2f54:	7f 7f       	andi	r23, 0xFF	; 255
    2f56:	7f 7f       	andi	r23, 0xFF	; 255
    2f58:	7f 7f       	andi	r23, 0xFF	; 255
    2f5a:	7f 7f       	andi	r23, 0xFF	; 255
    2f5c:	7f 7f       	andi	r23, 0xFF	; 255
    2f5e:	7f 7f       	andi	r23, 0xFF	; 255
    2f60:	7f 7f       	andi	r23, 0xFF	; 255
    2f62:	7f 7f       	andi	r23, 0xFF	; 255
    2f64:	7f 7f       	andi	r23, 0xFF	; 255
    2f66:	7f 7f       	andi	r23, 0xFF	; 255
    2f68:	7f 7f       	andi	r23, 0xFF	; 255
    2f6a:	7f 7f       	andi	r23, 0xFF	; 255
    2f6c:	7f 7f       	andi	r23, 0xFF	; 255
    2f6e:	7f 7f       	andi	r23, 0xFF	; 255
    2f70:	7f 7f       	andi	r23, 0xFF	; 255
    2f72:	7f 7f       	andi	r23, 0xFF	; 255
    2f74:	7f 7f       	andi	r23, 0xFF	; 255
    2f76:	7f 7f       	andi	r23, 0xFF	; 255
    2f78:	7f 7f       	andi	r23, 0xFF	; 255
    2f7a:	7f 7f       	andi	r23, 0xFF	; 255
    2f7c:	7f 7f       	andi	r23, 0xFF	; 255
    2f7e:	7f 7f       	andi	r23, 0xFF	; 255
    2f80:	80 80       	ld	r8, Z
    2f82:	80 80       	ld	r8, Z
    2f84:	80 80       	ld	r8, Z
    2f86:	80 80       	ld	r8, Z
    2f88:	80 80       	ld	r8, Z
    2f8a:	80 80       	ld	r8, Z
    2f8c:	80 80       	ld	r8, Z
    2f8e:	80 80       	ld	r8, Z
    2f90:	80 80       	ld	r8, Z
    2f92:	80 80       	ld	r8, Z
    2f94:	80 80       	ld	r8, Z
    2f96:	80 80       	ld	r8, Z
    2f98:	80 80       	ld	r8, Z
    2f9a:	80 80       	ld	r8, Z
    2f9c:	80 80       	ld	r8, Z
    2f9e:	80 80       	ld	r8, Z
    2fa0:	80 80       	ld	r8, Z
    2fa2:	80 80       	ld	r8, Z
    2fa4:	80 80       	ld	r8, Z
    2fa6:	80 80       	ld	r8, Z
    2fa8:	80 80       	ld	r8, Z
    2faa:	80 80       	ld	r8, Z
    2fac:	80 80       	ld	r8, Z
    2fae:	80 80       	ld	r8, Z
    2fb0:	80 80       	ld	r8, Z
    2fb2:	80 80       	ld	r8, Z
    2fb4:	80 80       	ld	r8, Z
    2fb6:	80 80       	ld	r8, Z
    2fb8:	80 80       	ld	r8, Z
    2fba:	80 80       	ld	r8, Z
    2fbc:	80 80       	ld	r8, Z
    2fbe:	80 80       	ld	r8, Z
    2fc0:	80 80       	ld	r8, Z
    2fc2:	80 80       	ld	r8, Z
    2fc4:	80 80       	ld	r8, Z
    2fc6:	80 80       	ld	r8, Z
    2fc8:	80 80       	ld	r8, Z
    2fca:	80 80       	ld	r8, Z
    2fcc:	80 80       	ld	r8, Z
    2fce:	80 80       	ld	r8, Z
    2fd0:	80 80       	ld	r8, Z
    2fd2:	80 80       	ld	r8, Z
    2fd4:	80 80       	ld	r8, Z
    2fd6:	80 80       	ld	r8, Z
    2fd8:	80 80       	ld	r8, Z
    2fda:	80 80       	ld	r8, Z
    2fdc:	80 80       	ld	r8, Z
    2fde:	80 80       	ld	r8, Z
    2fe0:	80 80       	ld	r8, Z
    2fe2:	80 80       	ld	r8, Z
    2fe4:	80 80       	ld	r8, Z
    2fe6:	80 80       	ld	r8, Z
    2fe8:	80 80       	ld	r8, Z
    2fea:	80 80       	ld	r8, Z
    2fec:	80 80       	ld	r8, Z
    2fee:	80 80       	ld	r8, Z
    2ff0:	80 80       	ld	r8, Z
    2ff2:	80 80       	ld	r8, Z
    2ff4:	80 80       	ld	r8, Z
    2ff6:	80 80       	ld	r8, Z
    2ff8:	80 80       	ld	r8, Z
    2ffa:	80 80       	ld	r8, Z
    2ffc:	80 80       	ld	r8, Z
    2ffe:	80 80       	ld	r8, Z
    3000:	7f 7f       	andi	r23, 0xFF	; 255
    3002:	7f 7f       	andi	r23, 0xFF	; 255
    3004:	7f 7f       	andi	r23, 0xFF	; 255
    3006:	7f 7f       	andi	r23, 0xFF	; 255
    3008:	7f 7f       	andi	r23, 0xFF	; 255
    300a:	7f 7f       	andi	r23, 0xFF	; 255
    300c:	7f 7f       	andi	r23, 0xFF	; 255
    300e:	7f 7f       	andi	r23, 0xFF	; 255
    3010:	7f 7f       	andi	r23, 0xFF	; 255
    3012:	7f 7f       	andi	r23, 0xFF	; 255
    3014:	7f 7f       	andi	r23, 0xFF	; 255
    3016:	7f 7f       	andi	r23, 0xFF	; 255
    3018:	7f 7f       	andi	r23, 0xFF	; 255
    301a:	7f 7f       	andi	r23, 0xFF	; 255
    301c:	7f 7f       	andi	r23, 0xFF	; 255
    301e:	7f 7f       	andi	r23, 0xFF	; 255
    3020:	7f 7f       	andi	r23, 0xFF	; 255
    3022:	7f 7f       	andi	r23, 0xFF	; 255
    3024:	7f 7f       	andi	r23, 0xFF	; 255
    3026:	7f 7f       	andi	r23, 0xFF	; 255
    3028:	7f 7f       	andi	r23, 0xFF	; 255
    302a:	7f 7f       	andi	r23, 0xFF	; 255
    302c:	7f 7f       	andi	r23, 0xFF	; 255
    302e:	7f 7f       	andi	r23, 0xFF	; 255
    3030:	7f 7f       	andi	r23, 0xFF	; 255
    3032:	7f 7f       	andi	r23, 0xFF	; 255
    3034:	7f 7f       	andi	r23, 0xFF	; 255
    3036:	7f 7f       	andi	r23, 0xFF	; 255
    3038:	7f 7f       	andi	r23, 0xFF	; 255
    303a:	7f 7f       	andi	r23, 0xFF	; 255
    303c:	7f 7f       	andi	r23, 0xFF	; 255
    303e:	7f 7f       	andi	r23, 0xFF	; 255
    3040:	7f 7f       	andi	r23, 0xFF	; 255
    3042:	7f 7f       	andi	r23, 0xFF	; 255
    3044:	7f 7f       	andi	r23, 0xFF	; 255
    3046:	7f 7f       	andi	r23, 0xFF	; 255
    3048:	7f 7f       	andi	r23, 0xFF	; 255
    304a:	7f 7f       	andi	r23, 0xFF	; 255
    304c:	7f 7f       	andi	r23, 0xFF	; 255
    304e:	7f 7f       	andi	r23, 0xFF	; 255
    3050:	7f 7f       	andi	r23, 0xFF	; 255
    3052:	7f 7f       	andi	r23, 0xFF	; 255
    3054:	7f 7f       	andi	r23, 0xFF	; 255
    3056:	7f 7f       	andi	r23, 0xFF	; 255
    3058:	7f 7f       	andi	r23, 0xFF	; 255
    305a:	7f 7f       	andi	r23, 0xFF	; 255
    305c:	7f 7f       	andi	r23, 0xFF	; 255
    305e:	7f 7f       	andi	r23, 0xFF	; 255
    3060:	7f 7f       	andi	r23, 0xFF	; 255
    3062:	7f 7f       	andi	r23, 0xFF	; 255
    3064:	7f 7f       	andi	r23, 0xFF	; 255
    3066:	7f 7f       	andi	r23, 0xFF	; 255
    3068:	7f 7f       	andi	r23, 0xFF	; 255
    306a:	7f 7f       	andi	r23, 0xFF	; 255
    306c:	7f 7f       	andi	r23, 0xFF	; 255
    306e:	7f 7f       	andi	r23, 0xFF	; 255
    3070:	7f 7f       	andi	r23, 0xFF	; 255
    3072:	7f 7f       	andi	r23, 0xFF	; 255
    3074:	7f 7f       	andi	r23, 0xFF	; 255
    3076:	7f 7f       	andi	r23, 0xFF	; 255
    3078:	7f 7f       	andi	r23, 0xFF	; 255
    307a:	7f 7f       	andi	r23, 0xFF	; 255
    307c:	7f 7f       	andi	r23, 0xFF	; 255
    307e:	7f 7f       	andi	r23, 0xFF	; 255
    3080:	7f 7f       	andi	r23, 0xFF	; 255
    3082:	7f 7f       	andi	r23, 0xFF	; 255
    3084:	7f 7f       	andi	r23, 0xFF	; 255
    3086:	7f 7f       	andi	r23, 0xFF	; 255
    3088:	7f 7f       	andi	r23, 0xFF	; 255
    308a:	7f 7f       	andi	r23, 0xFF	; 255
    308c:	7f 7f       	andi	r23, 0xFF	; 255
    308e:	7f 7f       	andi	r23, 0xFF	; 255
    3090:	7f 7f       	andi	r23, 0xFF	; 255
    3092:	7f 7f       	andi	r23, 0xFF	; 255
    3094:	7f 7f       	andi	r23, 0xFF	; 255
    3096:	7f 7f       	andi	r23, 0xFF	; 255
    3098:	7f 7f       	andi	r23, 0xFF	; 255
    309a:	7f 7f       	andi	r23, 0xFF	; 255
    309c:	7f 7f       	andi	r23, 0xFF	; 255
    309e:	7f 7f       	andi	r23, 0xFF	; 255
    30a0:	7f 7f       	andi	r23, 0xFF	; 255
    30a2:	7f 7f       	andi	r23, 0xFF	; 255
    30a4:	7f 7f       	andi	r23, 0xFF	; 255
    30a6:	7f 7f       	andi	r23, 0xFF	; 255
    30a8:	7f 7f       	andi	r23, 0xFF	; 255
    30aa:	7f 7f       	andi	r23, 0xFF	; 255
    30ac:	7f 7f       	andi	r23, 0xFF	; 255
    30ae:	7f 7f       	andi	r23, 0xFF	; 255
    30b0:	7f 7f       	andi	r23, 0xFF	; 255
    30b2:	7f 7f       	andi	r23, 0xFF	; 255
    30b4:	7f 7f       	andi	r23, 0xFF	; 255
    30b6:	7f 7f       	andi	r23, 0xFF	; 255
    30b8:	7f 7f       	andi	r23, 0xFF	; 255
    30ba:	7f 7f       	andi	r23, 0xFF	; 255
    30bc:	7f 7f       	andi	r23, 0xFF	; 255
    30be:	7f 7f       	andi	r23, 0xFF	; 255
    30c0:	80 80       	ld	r8, Z
    30c2:	80 80       	ld	r8, Z
    30c4:	80 80       	ld	r8, Z
    30c6:	80 80       	ld	r8, Z
    30c8:	80 80       	ld	r8, Z
    30ca:	80 80       	ld	r8, Z
    30cc:	80 80       	ld	r8, Z
    30ce:	80 80       	ld	r8, Z
    30d0:	80 80       	ld	r8, Z
    30d2:	80 80       	ld	r8, Z
    30d4:	80 80       	ld	r8, Z
    30d6:	80 80       	ld	r8, Z
    30d8:	80 80       	ld	r8, Z
    30da:	80 80       	ld	r8, Z
    30dc:	80 80       	ld	r8, Z
    30de:	80 80       	ld	r8, Z
    30e0:	80 80       	ld	r8, Z
    30e2:	80 80       	ld	r8, Z
    30e4:	80 80       	ld	r8, Z
    30e6:	80 80       	ld	r8, Z
    30e8:	80 80       	ld	r8, Z
    30ea:	80 80       	ld	r8, Z
    30ec:	80 80       	ld	r8, Z
    30ee:	80 80       	ld	r8, Z
    30f0:	80 80       	ld	r8, Z
    30f2:	80 80       	ld	r8, Z
    30f4:	80 80       	ld	r8, Z
    30f6:	80 80       	ld	r8, Z
    30f8:	80 80       	ld	r8, Z
    30fa:	80 80       	ld	r8, Z
    30fc:	80 80       	ld	r8, Z
    30fe:	80 80       	ld	r8, Z
    3100:	03 09       	sbc	r16, r3
    3102:	13 1e       	adc	r1, r19
    3104:	28 31       	cpi	r18, 0x18	; 24
    3106:	3a 40       	sbci	r19, 0x0A	; 10
    3108:	46 4c       	sbci	r20, 0xC6	; 198
    310a:	50 54       	subi	r21, 0x40	; 64
    310c:	58 5b       	subi	r21, 0xB8	; 184
    310e:	5e 61       	ori	r21, 0x1E	; 30
    3110:	63 65       	ori	r22, 0x53	; 83
    3112:	67 69       	ori	r22, 0x97	; 151
    3114:	6b 6c       	ori	r22, 0xCB	; 203
    3116:	6e 6f       	ori	r22, 0xFE	; 254
    3118:	70 71       	andi	r23, 0x10	; 16
    311a:	72 73       	andi	r23, 0x32	; 50
    311c:	74 75       	andi	r23, 0x54	; 84
    311e:	76 77       	andi	r23, 0x76	; 118
    3120:	77 78       	andi	r23, 0x87	; 135
    3122:	79 79       	andi	r23, 0x99	; 153
    3124:	7a 7a       	andi	r23, 0xAA	; 170
    3126:	7b 7b       	andi	r23, 0xBB	; 187
    3128:	7c 7c       	andi	r23, 0xCC	; 204
    312a:	7c 7d       	andi	r23, 0xDC	; 220
    312c:	7d 7d       	andi	r23, 0xDD	; 221
    312e:	7e 7e       	andi	r23, 0xEE	; 238
    3130:	7e 7e       	andi	r23, 0xEE	; 238
    3132:	7f 7f       	andi	r23, 0xFF	; 255
    3134:	7f 7f       	andi	r23, 0xFF	; 255
    3136:	7f 7f       	andi	r23, 0xFF	; 255
    3138:	7f 7f       	andi	r23, 0xFF	; 255
    313a:	7f 7f       	andi	r23, 0xFF	; 255
    313c:	7f 7f       	andi	r23, 0xFF	; 255
    313e:	7f 7f       	andi	r23, 0xFF	; 255
    3140:	7f 7f       	andi	r23, 0xFF	; 255
    3142:	7f 7f       	andi	r23, 0xFF	; 255
    3144:	7f 7f       	andi	r23, 0xFF	; 255
    3146:	7f 7f       	andi	r23, 0xFF	; 255
    3148:	7f 7f       	andi	r23, 0xFF	; 255
    314a:	7f 7f       	andi	r23, 0xFF	; 255
    314c:	7f 7e       	andi	r23, 0xEF	; 239
    314e:	7e 7e       	andi	r23, 0xEE	; 238
    3150:	7e 7d       	andi	r23, 0xDE	; 222
    3152:	7d 7d       	andi	r23, 0xDD	; 221
    3154:	7c 7c       	andi	r23, 0xCC	; 204
    3156:	7c 7b       	andi	r23, 0xBC	; 188
    3158:	7b 7a       	andi	r23, 0xAB	; 171
    315a:	7a 79       	andi	r23, 0x9A	; 154
    315c:	79 78       	andi	r23, 0x89	; 137
    315e:	77 77       	andi	r23, 0x77	; 119
    3160:	76 75       	andi	r23, 0x56	; 86
    3162:	74 73       	andi	r23, 0x34	; 52
    3164:	72 71       	andi	r23, 0x12	; 18
    3166:	70 6f       	ori	r23, 0xF0	; 240
    3168:	6e 6c       	ori	r22, 0xCE	; 206
    316a:	6b 69       	ori	r22, 0x9B	; 155
    316c:	67 65       	ori	r22, 0x57	; 87
    316e:	63 61       	ori	r22, 0x13	; 19
    3170:	5e 5b       	subi	r21, 0xBE	; 190
    3172:	58 54       	subi	r21, 0x48	; 72
    3174:	50 4c       	sbci	r21, 0xC0	; 192
    3176:	46 40       	sbci	r20, 0x06	; 6
    3178:	3a 31       	cpi	r19, 0x1A	; 26
    317a:	28 1e       	adc	r2, r24
    317c:	13 09       	sbc	r17, r3
    317e:	03 00       	.word	0x0003	; ????
    3180:	c6 cc       	rjmp	.-1652   	; 0x2b0e <waves+0xe>
    3182:	d5 db       	rcall	.-2134   	; 0x292e <TriggerNote+0x34>
    3184:	df e3       	ldi	r29, 0x3F	; 63
    3186:	e5 e7       	ldi	r30, 0x75	; 117
    3188:	e9 ea       	ldi	r30, 0xA9	; 169
    318a:	eb ec       	ldi	r30, 0xCB	; 203
    318c:	ed ee       	ldi	r30, 0xED	; 237
    318e:	ef ef       	ldi	r30, 0xFF	; 255
    3190:	f0 f0       	brcs	.+60     	; 0x31ce <waves+0x6ce>
    3192:	f0 f1       	brcs	.+124    	; 0x3210 <waves+0x710>
    3194:	f1 f1       	breq	.+124    	; 0x3212 <waves+0x712>
    3196:	f1 f2       	breq	.-68     	; 0x3154 <waves+0x654>
    3198:	f2 f2       	brmi	.-68     	; 0x3156 <waves+0x656>
    319a:	f2 f2       	brmi	.-68     	; 0x3158 <waves+0x658>
    319c:	f2 f2       	brmi	.-68     	; 0x315a <waves+0x65a>
    319e:	f2 f3       	brmi	.-4      	; 0x319c <waves+0x69c>
    31a0:	f3 f3       	brvs	.-4      	; 0x319e <waves+0x69e>
    31a2:	f3 f3       	brvs	.-4      	; 0x31a0 <waves+0x6a0>
    31a4:	f3 f3       	brvs	.-4      	; 0x31a2 <waves+0x6a2>
    31a6:	f3 f3       	brvs	.-4      	; 0x31a4 <waves+0x6a4>
    31a8:	f3 f3       	brvs	.-4      	; 0x31a6 <waves+0x6a6>
    31aa:	f3 f3       	brvs	.-4      	; 0x31a8 <waves+0x6a8>
    31ac:	f3 f3       	brvs	.-4      	; 0x31aa <waves+0x6aa>
    31ae:	f3 f3       	brvs	.-4      	; 0x31ac <waves+0x6ac>
    31b0:	f3 f3       	brvs	.-4      	; 0x31ae <waves+0x6ae>
    31b2:	f3 f3       	brvs	.-4      	; 0x31b0 <waves+0x6b0>
    31b4:	f3 f3       	brvs	.-4      	; 0x31b2 <waves+0x6b2>
    31b6:	f3 f3       	brvs	.-4      	; 0x31b4 <waves+0x6b4>
    31b8:	f3 f3       	brvs	.-4      	; 0x31b6 <waves+0x6b6>
    31ba:	f3 f3       	brvs	.-4      	; 0x31b8 <waves+0x6b8>
    31bc:	f3 f3       	brvs	.-4      	; 0x31ba <waves+0x6ba>
    31be:	f3 f3       	brvs	.-4      	; 0x31bc <waves+0x6bc>
    31c0:	f3 f3       	brvs	.-4      	; 0x31be <waves+0x6be>
    31c2:	f3 f3       	brvs	.-4      	; 0x31c0 <waves+0x6c0>
    31c4:	f3 f3       	brvs	.-4      	; 0x31c2 <waves+0x6c2>
    31c6:	f3 f3       	brvs	.-4      	; 0x31c4 <waves+0x6c4>
    31c8:	f3 f3       	brvs	.-4      	; 0x31c6 <waves+0x6c6>
    31ca:	f3 f3       	brvs	.-4      	; 0x31c8 <waves+0x6c8>
    31cc:	f3 f3       	brvs	.-4      	; 0x31ca <waves+0x6ca>
    31ce:	f3 f3       	brvs	.-4      	; 0x31cc <waves+0x6cc>
    31d0:	f3 f3       	brvs	.-4      	; 0x31ce <waves+0x6ce>
    31d2:	f3 f3       	brvs	.-4      	; 0x31d0 <waves+0x6d0>
    31d4:	f3 f3       	brvs	.-4      	; 0x31d2 <waves+0x6d2>
    31d6:	f3 f3       	brvs	.-4      	; 0x31d4 <waves+0x6d4>
    31d8:	f3 f3       	brvs	.-4      	; 0x31d6 <waves+0x6d6>
    31da:	f3 f3       	brvs	.-4      	; 0x31d8 <waves+0x6d8>
    31dc:	f3 f3       	brvs	.-4      	; 0x31da <waves+0x6da>
    31de:	f3 f3       	brvs	.-4      	; 0x31dc <waves+0x6dc>
    31e0:	f2 f2       	brmi	.-68     	; 0x319e <waves+0x69e>
    31e2:	f2 f2       	brmi	.-68     	; 0x31a0 <waves+0x6a0>
    31e4:	f2 f2       	brmi	.-68     	; 0x31a2 <waves+0x6a2>
    31e6:	f2 f2       	brmi	.-68     	; 0x31a4 <waves+0x6a4>
    31e8:	f1 f1       	breq	.+124    	; 0x3266 <waves+0x766>
    31ea:	f1 f1       	breq	.+124    	; 0x3268 <waves+0x768>
    31ec:	f0 f0       	brcs	.+60     	; 0x322a <waves+0x72a>
    31ee:	f0 ef       	ldi	r31, 0xF0	; 240
    31f0:	ef ee       	ldi	r30, 0xEF	; 239
    31f2:	ed ec       	ldi	r30, 0xCD	; 205
    31f4:	eb ea       	ldi	r30, 0xAB	; 171
    31f6:	e9 e7       	ldi	r30, 0x79	; 121
    31f8:	e5 e3       	ldi	r30, 0x35	; 53
    31fa:	df db       	rcall	.-2114   	; 0x29ba <SetMixerWave+0x12>
    31fc:	d5 cc       	rjmp	.-1622   	; 0x2ba8 <waves+0xa8>
    31fe:	c6 00       	.word	0x00c6	; ????
    3200:	00 28       	or	r0, r0
    3202:	3d 42       	sbci	r19, 0x2D	; 45
    3204:	30 2d       	mov	r19, r0
    3206:	2c 2b       	or	r18, r28
    3208:	2c 2d       	mov	r18, r12
    320a:	2e 2f       	mov	r18, r30
    320c:	30 32       	cpi	r19, 0x20	; 32
    320e:	33 35       	cpi	r19, 0x53	; 83
    3210:	37 39       	cpi	r19, 0x97	; 151
    3212:	3b 3d       	cpi	r19, 0xDB	; 219
    3214:	3f 41       	sbci	r19, 0x1F	; 31
    3216:	43 45       	sbci	r20, 0x53	; 83
    3218:	48 4a       	sbci	r20, 0xA8	; 168
    321a:	4c 4e       	sbci	r20, 0xEC	; 236
    321c:	50 53       	subi	r21, 0x30	; 48
    321e:	55 57       	subi	r21, 0x75	; 117
    3220:	59 5b       	subi	r21, 0xB9	; 185
    3222:	5d 5f       	subi	r21, 0xFD	; 253
    3224:	61 63       	ori	r22, 0x31	; 49
    3226:	65 67       	ori	r22, 0x75	; 117
    3228:	69 6b       	ori	r22, 0xB9	; 185
    322a:	6c 6e       	ori	r22, 0xEC	; 236
    322c:	70 71       	andi	r23, 0x10	; 16
    322e:	73 74       	andi	r23, 0x43	; 67
    3230:	75 77       	andi	r23, 0x75	; 117
    3232:	78 79       	andi	r23, 0x98	; 152
    3234:	7a 7b       	andi	r23, 0xBA	; 186
    3236:	7c 7d       	andi	r23, 0xDC	; 220
    3238:	7d 7e       	andi	r23, 0xED	; 237
    323a:	7e 7f       	andi	r23, 0xFE	; 254
    323c:	7f 7f       	andi	r23, 0xFF	; 255
    323e:	7f 7f       	andi	r23, 0xFF	; 255
    3240:	7f 7f       	andi	r23, 0xFF	; 255
    3242:	7f 7f       	andi	r23, 0xFF	; 255
    3244:	7f 7f       	andi	r23, 0xFF	; 255
    3246:	7e 7e       	andi	r23, 0xEE	; 238
    3248:	7d 7d       	andi	r23, 0xDD	; 221
    324a:	7c 7b       	andi	r23, 0xBC	; 188
    324c:	7a 79       	andi	r23, 0x9A	; 154
    324e:	78 77       	andi	r23, 0x78	; 120
    3250:	75 74       	andi	r23, 0x45	; 69
    3252:	73 71       	andi	r23, 0x13	; 19
    3254:	70 6e       	ori	r23, 0xE0	; 224
    3256:	6c 6b       	ori	r22, 0xBC	; 188
    3258:	69 67       	ori	r22, 0x79	; 121
    325a:	65 63       	ori	r22, 0x35	; 53
    325c:	61 5f       	subi	r22, 0xF1	; 241
    325e:	5d 5b       	subi	r21, 0xBD	; 189
    3260:	59 57       	subi	r21, 0x79	; 121
    3262:	55 53       	subi	r21, 0x35	; 53
    3264:	50 4e       	sbci	r21, 0xE0	; 224
    3266:	4c 4a       	sbci	r20, 0xAC	; 172
    3268:	48 45       	sbci	r20, 0x58	; 88
    326a:	43 41       	sbci	r20, 0x13	; 19
    326c:	3f 3d       	cpi	r19, 0xDF	; 223
    326e:	3b 39       	cpi	r19, 0x9B	; 155
    3270:	37 35       	cpi	r19, 0x57	; 87
    3272:	33 32       	cpi	r19, 0x23	; 35
    3274:	30 2f       	mov	r19, r16
    3276:	2e 2d       	mov	r18, r14
    3278:	2c 2b       	or	r18, r28
    327a:	2c 2d       	mov	r18, r12
    327c:	30 42       	sbci	r19, 0x20	; 32
    327e:	3d 28       	or	r3, r13
    3280:	00 e9       	ldi	r16, 0x90	; 144
    3282:	e5 fe       	sbrs	r14, 5
    3284:	d4 d7       	rcall	.+4008   	; 0x422e <__data_load_end+0x300>
    3286:	d7 d7       	rcall	.+4014   	; 0x4236 <__data_load_end+0x308>
    3288:	d6 d4       	rcall	.+2476   	; 0x3c36 <MoveHero+0x50>
    328a:	d2 d0       	rcall	.+420    	; 0x3430 <waves+0x930>
    328c:	ce cc       	rjmp	.-1636   	; 0x2c2a <waves+0x12a>
    328e:	ca c8       	rjmp	.-3692   	; 0x2424 <PatchCommand14+0x18>
    3290:	c6 c3       	rjmp	.+1932   	; 0x3a1e <update+0x2fc>
    3292:	c1 bf       	out	0x31, r28	; 49
    3294:	bd ba       	out	0x1d, r11	; 29
    3296:	b8 b6       	in	r11, 0x38	; 56
    3298:	b4 b1       	in	r27, 0x04	; 4
    329a:	af ad       	ldd	r26, Y+63	; 0x3f
    329c:	ab a9       	ldd	r26, Y+51	; 0x33
    329e:	a7 a5       	ldd	r26, Z+47	; 0x2f
    32a0:	a3 a1       	ldd	r26, Z+35	; 0x23
    32a2:	9f 9e       	mul	r9, r31
    32a4:	9c 9a       	sbi	0x13, 4	; 19
    32a6:	99 97       	sbiw	r26, 0x29	; 41
    32a8:	95 94       	asr	r9
    32aa:	93 91       	.word	0x9193	; ????
    32ac:	90 8f       	std	Z+24, r25	; 0x18
    32ae:	8d 8c       	ldd	r8, Y+29	; 0x1d
    32b0:	8b 8a       	std	Y+19, r8	; 0x13
    32b2:	89 88       	ldd	r8, Y+17	; 0x11
    32b4:	88 87       	std	Y+8, r24	; 0x08
    32b6:	86 85       	ldd	r24, Z+14	; 0x0e
    32b8:	85 84       	ldd	r8, Z+13	; 0x0d
    32ba:	84 84       	ldd	r8, Z+12	; 0x0c
    32bc:	83 83       	std	Z+3, r24	; 0x03
    32be:	83 83       	std	Z+3, r24	; 0x03
    32c0:	83 83       	std	Z+3, r24	; 0x03
    32c2:	83 83       	std	Z+3, r24	; 0x03
    32c4:	83 84       	ldd	r8, Z+11	; 0x0b
    32c6:	84 84       	ldd	r8, Z+12	; 0x0c
    32c8:	85 85       	ldd	r24, Z+13	; 0x0d
    32ca:	86 87       	std	Z+14, r24	; 0x0e
    32cc:	88 88       	ldd	r8, Y+16	; 0x10
    32ce:	89 8a       	std	Y+17, r8	; 0x11
    32d0:	8b 8c       	ldd	r8, Y+27	; 0x1b
    32d2:	8d 8f       	std	Y+29, r24	; 0x1d
    32d4:	90 91 93 94 	lds	r25, 0x9493	; 0x809493 <__bss_end+0x8adb>
    32d8:	95 97       	sbiw	r26, 0x25	; 37
    32da:	99 9a       	sbi	0x13, 1	; 19
    32dc:	9c 9e       	mul	r9, r28
    32de:	9f a1       	ldd	r25, Y+39	; 0x27
    32e0:	a3 a5       	ldd	r26, Z+43	; 0x2b
    32e2:	a7 a9       	ldd	r26, Z+55	; 0x37
    32e4:	ab ad       	ldd	r26, Y+59	; 0x3b
    32e6:	af b1       	in	r26, 0x0f	; 15
    32e8:	b4 b6       	in	r11, 0x34	; 52
    32ea:	b8 ba       	out	0x18, r11	; 24
    32ec:	bd bf       	out	0x3d, r27	; 61
    32ee:	c1 c3       	rjmp	.+1922   	; 0x3a72 <draw+0x1a>
    32f0:	c6 c8       	rjmp	.-3700   	; 0x247e <ProcessMusic+0x1e>
    32f2:	ca cc       	rjmp	.-1644   	; 0x2c88 <waves+0x188>
    32f4:	ce d0       	rcall	.+412    	; 0x3492 <waves+0x992>
    32f6:	d2 d4       	rcall	.+2468   	; 0x3c9c <drawRectangle+0x2a>
    32f8:	d6 d7       	rcall	.+4012   	; 0x42a6 <__data_load_end+0x378>
    32fa:	d7 d7       	rcall	.+4014   	; 0x42aa <__data_load_end+0x37c>
    32fc:	d4 fe       	sbrs	r13, 4
    32fe:	e5 e9       	ldi	r30, 0x95	; 149
    3300:	f9 f8       	.word	0xf8f9	; ????
    3302:	f9 f5       	brne	.+126    	; 0x3382 <waves+0x882>
    3304:	eb e1       	ldi	r30, 0x1B	; 27
    3306:	dd de       	rcall	.-582    	; 0x30c2 <waves+0x5c2>
    3308:	e0 e2       	ldi	r30, 0x20	; 32
    330a:	e4 e5       	ldi	r30, 0x54	; 84
    330c:	e6 e5       	ldi	r30, 0x56	; 86
    330e:	e4 e2       	ldi	r30, 0x24	; 36
    3310:	de d9       	rcall	.-3140   	; 0x26ce <ProcessMusic+0x26e>
    3312:	d2 ca       	rjmp	.-2652   	; 0x28b8 <TriggerCommon+0x5a>
    3314:	c1 b7       	in	r28, 0x31	; 49
    3316:	ac a2       	std	Y+36, r10	; 0x24
    3318:	99 91       	ld	r25, Y+
    331a:	8a 86       	std	Y+10, r8	; 0x0a
    331c:	83 81       	ldd	r24, Z+3	; 0x03
    331e:	80 80       	ld	r8, Z
    3320:	81 82       	std	Z+1, r8	; 0x01
    3322:	83 85       	ldd	r24, Z+11	; 0x0b
    3324:	86 88       	ldd	r8, Z+22	; 0x16
    3326:	8a 8c       	ldd	r8, Y+26	; 0x1a
    3328:	8d 8f       	std	Y+29, r24	; 0x1d
    332a:	90 92 93 95 	sts	0x9593, r9	; 0x809593 <__bss_end+0x8bdb>
    332e:	96 97       	sbiw	r26, 0x26	; 38
    3330:	98 99       	sbic	0x13, 0	; 19
    3332:	9a 9b       	sbis	0x13, 2	; 19
    3334:	9b 9c       	mul	r9, r11
    3336:	9d 9d       	mul	r25, r13
    3338:	9d 9e       	mul	r9, r29
    333a:	9e 9e       	mul	r9, r30
    333c:	9f 9f       	mul	r25, r31
    333e:	9f 9f       	mul	r25, r31
    3340:	9f 9f       	mul	r25, r31
    3342:	9f 9e       	mul	r9, r31
    3344:	9e 9e       	mul	r9, r30
    3346:	9d 9d       	mul	r25, r13
    3348:	9d 9c       	mul	r9, r13
    334a:	9b 9b       	sbis	0x13, 3	; 19
    334c:	9a 99       	sbic	0x13, 2	; 19
    334e:	98 97       	sbiw	r26, 0x28	; 40
    3350:	96 95       	lsr	r25
    3352:	93 92       	.word	0x9293	; ????
    3354:	90 8f       	std	Z+24, r25	; 0x18
    3356:	8d 8c       	ldd	r8, Y+29	; 0x1d
    3358:	8a 88       	ldd	r8, Y+18	; 0x12
    335a:	86 85       	ldd	r24, Z+14	; 0x0e
    335c:	83 82       	std	Z+3, r8	; 0x03
    335e:	81 80       	ldd	r8, Z+1	; 0x01
    3360:	80 81       	ld	r24, Z
    3362:	83 86       	std	Z+11, r8	; 0x0b
    3364:	8a 91       	ld	r24, -Y
    3366:	99 a2       	std	Y+33, r9	; 0x21
    3368:	ac b7       	in	r26, 0x3c	; 60
    336a:	c1 ca       	rjmp	.-2686   	; 0x28ee <TriggerCommon+0x90>
    336c:	d2 d9       	rcall	.-3164   	; 0x2712 <ProcessMusic+0x2b2>
    336e:	de e2       	ldi	r29, 0x2E	; 46
    3370:	e4 e5       	ldi	r30, 0x54	; 84
    3372:	e6 e5       	ldi	r30, 0x56	; 86
    3374:	e4 e2       	ldi	r30, 0x24	; 36
    3376:	e0 de       	rcall	.-576    	; 0x3138 <waves+0x638>
    3378:	dd e1       	ldi	r29, 0x1D	; 29
    337a:	eb f5       	brvc	.+122    	; 0x33f6 <waves+0x8f6>
    337c:	f9 f8       	.word	0xf8f9	; ????
    337e:	f9 00       	.word	0x00f9	; ????
    3380:	07 08       	sbc	r0, r7
    3382:	07 0b       	sbc	r16, r23
    3384:	15 1f       	adc	r17, r21
    3386:	23 22       	and	r2, r19
    3388:	20 1e       	adc	r2, r16
    338a:	1c 1b       	sub	r17, r28
    338c:	1a 1b       	sub	r17, r26
    338e:	1c 1e       	adc	r1, r28
    3390:	22 27       	eor	r18, r18
    3392:	2e 36       	cpi	r18, 0x6E	; 110
    3394:	3f 49       	sbci	r19, 0x9F	; 159
    3396:	54 5e       	subi	r21, 0xE4	; 228
    3398:	67 6f       	ori	r22, 0xF7	; 247
    339a:	76 7a       	andi	r23, 0xA6	; 166
    339c:	7e 7f       	andi	r23, 0xFE	; 254
    339e:	7f 7f       	andi	r23, 0xFF	; 255
    33a0:	7f 7e       	andi	r23, 0xEF	; 239
    33a2:	7d 7b       	andi	r23, 0xBD	; 189
    33a4:	7a 78       	andi	r23, 0x8A	; 138
    33a6:	76 74       	andi	r23, 0x46	; 70
    33a8:	73 71       	andi	r23, 0x13	; 19
    33aa:	70 6e       	ori	r23, 0xE0	; 224
    33ac:	6d 6b       	ori	r22, 0xBD	; 189
    33ae:	6a 69       	ori	r22, 0x9A	; 154
    33b0:	68 67       	ori	r22, 0x78	; 120
    33b2:	66 65       	ori	r22, 0x56	; 86
    33b4:	65 64       	ori	r22, 0x45	; 69
    33b6:	64 63       	ori	r22, 0x34	; 52
    33b8:	63 62       	ori	r22, 0x23	; 35
    33ba:	62 62       	ori	r22, 0x22	; 34
    33bc:	61 61       	ori	r22, 0x11	; 17
    33be:	61 61       	ori	r22, 0x11	; 17
    33c0:	61 61       	ori	r22, 0x11	; 17
    33c2:	61 62       	ori	r22, 0x21	; 33
    33c4:	62 62       	ori	r22, 0x22	; 34
    33c6:	63 63       	ori	r22, 0x33	; 51
    33c8:	63 64       	ori	r22, 0x43	; 67
    33ca:	65 65       	ori	r22, 0x55	; 85
    33cc:	66 67       	ori	r22, 0x76	; 118
    33ce:	68 69       	ori	r22, 0x98	; 152
    33d0:	6a 6b       	ori	r22, 0xBA	; 186
    33d2:	6d 6e       	ori	r22, 0xED	; 237
    33d4:	70 71       	andi	r23, 0x10	; 16
    33d6:	73 74       	andi	r23, 0x43	; 67
    33d8:	76 78       	andi	r23, 0x86	; 134
    33da:	7a 7b       	andi	r23, 0xBA	; 186
    33dc:	7d 7e       	andi	r23, 0xED	; 237
    33de:	7f 7f       	andi	r23, 0xFF	; 255
    33e0:	7f 7f       	andi	r23, 0xFF	; 255
    33e2:	7e 7a       	andi	r23, 0xAE	; 174
    33e4:	76 6f       	ori	r23, 0xF6	; 246
    33e6:	67 5e       	subi	r22, 0xE7	; 231
    33e8:	54 49       	sbci	r21, 0x94	; 148
    33ea:	3f 36       	cpi	r19, 0x6F	; 111
    33ec:	2e 27       	eor	r18, r30
    33ee:	22 1e       	adc	r2, r18
    33f0:	1c 1b       	sub	r17, r28
    33f2:	1a 1b       	sub	r17, r26
    33f4:	1c 1e       	adc	r1, r28
    33f6:	20 22       	and	r2, r16
    33f8:	23 1f       	adc	r18, r19
    33fa:	15 0b       	sbc	r17, r21
    33fc:	07 08       	sbc	r0, r7
    33fe:	07 00       	.word	0x0007	; ????
    3400:	1f 31       	cpi	r17, 0x1F	; 31
    3402:	3d 44       	sbci	r19, 0x4D	; 77
    3404:	4e 53       	subi	r20, 0x3E	; 62
    3406:	54 56       	subi	r21, 0x64	; 100
    3408:	5a 5f       	subi	r21, 0xFA	; 250
    340a:	64 69       	ori	r22, 0x94	; 148
    340c:	6e 74       	andi	r22, 0x4E	; 78
    340e:	76 79       	andi	r23, 0x96	; 150
    3410:	7c 7f       	andi	r23, 0xFC	; 252
    3412:	7f 7f       	andi	r23, 0xFF	; 255
    3414:	7f 7f       	andi	r23, 0xFF	; 255
    3416:	7f 7f       	andi	r23, 0xFF	; 255
    3418:	7f 7f       	andi	r23, 0xFF	; 255
    341a:	7f 7f       	andi	r23, 0xFF	; 255
    341c:	7f 7f       	andi	r23, 0xFF	; 255
    341e:	7f 7f       	andi	r23, 0xFF	; 255
    3420:	7f 7f       	andi	r23, 0xFF	; 255
    3422:	7f 7f       	andi	r23, 0xFF	; 255
    3424:	7f 7f       	andi	r23, 0xFF	; 255
    3426:	7f 7f       	andi	r23, 0xFF	; 255
    3428:	7f 7f       	andi	r23, 0xFF	; 255
    342a:	7f 7f       	andi	r23, 0xFF	; 255
    342c:	7f 7f       	andi	r23, 0xFF	; 255
    342e:	7f 7f       	andi	r23, 0xFF	; 255
    3430:	7f 7f       	andi	r23, 0xFF	; 255
    3432:	7f 7f       	andi	r23, 0xFF	; 255
    3434:	7f 7f       	andi	r23, 0xFF	; 255
    3436:	7f 7f       	andi	r23, 0xFF	; 255
    3438:	7f 7f       	andi	r23, 0xFF	; 255
    343a:	7f 7f       	andi	r23, 0xFF	; 255
    343c:	7f 7f       	andi	r23, 0xFF	; 255
    343e:	7f 7f       	andi	r23, 0xFF	; 255
    3440:	7f 7f       	andi	r23, 0xFF	; 255
    3442:	7f 7f       	andi	r23, 0xFF	; 255
    3444:	7f 7f       	andi	r23, 0xFF	; 255
    3446:	7f 7f       	andi	r23, 0xFF	; 255
    3448:	7f 7f       	andi	r23, 0xFF	; 255
    344a:	7f 7f       	andi	r23, 0xFF	; 255
    344c:	7f 7f       	andi	r23, 0xFF	; 255
    344e:	7f 7f       	andi	r23, 0xFF	; 255
    3450:	7f 7f       	andi	r23, 0xFF	; 255
    3452:	7f 7f       	andi	r23, 0xFF	; 255
    3454:	7f 7f       	andi	r23, 0xFF	; 255
    3456:	7f 7f       	andi	r23, 0xFF	; 255
    3458:	7f 7f       	andi	r23, 0xFF	; 255
    345a:	7f 7f       	andi	r23, 0xFF	; 255
    345c:	7f 7f       	andi	r23, 0xFF	; 255
    345e:	7f 7f       	andi	r23, 0xFF	; 255
    3460:	7f 7f       	andi	r23, 0xFF	; 255
    3462:	7f 7f       	andi	r23, 0xFF	; 255
    3464:	7f 7f       	andi	r23, 0xFF	; 255
    3466:	7f 7f       	andi	r23, 0xFF	; 255
    3468:	7f 7f       	andi	r23, 0xFF	; 255
    346a:	7f 7f       	andi	r23, 0xFF	; 255
    346c:	7f 7f       	andi	r23, 0xFF	; 255
    346e:	7f 7f       	andi	r23, 0xFF	; 255
    3470:	7f 7f       	andi	r23, 0xFF	; 255
    3472:	7f 7f       	andi	r23, 0xFF	; 255
    3474:	7f 7f       	andi	r23, 0xFF	; 255
    3476:	7f 7f       	andi	r23, 0xFF	; 255
    3478:	7f 7f       	andi	r23, 0xFF	; 255
    347a:	7f 7c       	andi	r23, 0xCF	; 207
    347c:	78 71       	andi	r23, 0x18	; 24
    347e:	68 4c       	sbci	r22, 0xC8	; 200
    3480:	2c 1c       	adc	r2, r12
    3482:	12 0c       	add	r1, r2
    3484:	0a 0b       	sbc	r16, r26
    3486:	0a 05       	cpc	r16, r10
    3488:	fd f3       	brhs	.-2      	; 0x3488 <waves+0x988>
    348a:	e9 df       	rcall	.-46     	; 0x345e <waves+0x95e>
    348c:	d4 ca       	rjmp	.-2648   	; 0x2a36 <steptable+0x54>
    348e:	c0 b7       	in	r28, 0x30	; 48
    3490:	ae a6       	std	Y+46, r10	; 0x2e
    3492:	9e 97       	sbiw	r26, 0x2e	; 46
    3494:	91 8b       	std	Z+17, r25	; 0x11
    3496:	86 85       	ldd	r24, Z+14	; 0x0e
    3498:	82 80       	ldd	r8, Z+2	; 0x02
    349a:	80 80       	ld	r8, Z
    349c:	80 80       	ld	r8, Z
    349e:	80 80       	ld	r8, Z
    34a0:	80 80       	ld	r8, Z
    34a2:	80 80       	ld	r8, Z
    34a4:	80 80       	ld	r8, Z
    34a6:	80 80       	ld	r8, Z
    34a8:	80 80       	ld	r8, Z
    34aa:	80 80       	ld	r8, Z
    34ac:	80 80       	ld	r8, Z
    34ae:	80 80       	ld	r8, Z
    34b0:	80 80       	ld	r8, Z
    34b2:	80 80       	ld	r8, Z
    34b4:	80 80       	ld	r8, Z
    34b6:	80 80       	ld	r8, Z
    34b8:	80 80       	ld	r8, Z
    34ba:	80 80       	ld	r8, Z
    34bc:	80 80       	ld	r8, Z
    34be:	80 80       	ld	r8, Z
    34c0:	80 80       	ld	r8, Z
    34c2:	80 80       	ld	r8, Z
    34c4:	80 80       	ld	r8, Z
    34c6:	80 80       	ld	r8, Z
    34c8:	80 80       	ld	r8, Z
    34ca:	80 80       	ld	r8, Z
    34cc:	80 80       	ld	r8, Z
    34ce:	80 80       	ld	r8, Z
    34d0:	80 80       	ld	r8, Z
    34d2:	80 80       	ld	r8, Z
    34d4:	80 80       	ld	r8, Z
    34d6:	80 80       	ld	r8, Z
    34d8:	80 80       	ld	r8, Z
    34da:	80 80       	ld	r8, Z
    34dc:	80 80       	ld	r8, Z
    34de:	80 80       	ld	r8, Z
    34e0:	80 80       	ld	r8, Z
    34e2:	80 80       	ld	r8, Z
    34e4:	80 80       	ld	r8, Z
    34e6:	80 80       	ld	r8, Z
    34e8:	80 80       	ld	r8, Z
    34ea:	80 80       	ld	r8, Z
    34ec:	80 80       	ld	r8, Z
    34ee:	80 80       	ld	r8, Z
    34f0:	80 80       	ld	r8, Z
    34f2:	80 80       	ld	r8, Z
    34f4:	80 87       	std	Z+8, r24	; 0x08
    34f6:	91 9d       	mul	r25, r1
    34f8:	ac c4       	rjmp	.+2392   	; 0x3e52 <do_rand+0x78>
    34fa:	cb d4       	rcall	.+2454   	; 0x3e92 <__divmodsi4>
    34fc:	dd f2       	brhs	.-74     	; 0x34b4 <waves+0x9b4>
    34fe:	fa fa       	.word	0xfafa	; ????

00003500 <DisplayLogo>:
    3500:	08 95       	ret

00003502 <InitializeVideoMode>:
		return;
	}
	
	fadeStep=FADER_STEPS;
	fadeDir=-1;
	doFade(speed,blocking);
    3502:	08 95       	ret

00003504 <VideoModeVsync>:
    3504:	0c 94 fa 1a 	jmp	0x35f4	; 0x35f4 <ProcessFading>

00003508 <PrintInt>:
    3508:	cf 92       	push	r12
    350a:	df 92       	push	r13
    350c:	ef 92       	push	r14
    350e:	ff 92       	push	r15
    3510:	0f 93       	push	r16
    3512:	1f 93       	push	r17
    3514:	cf 93       	push	r28
    3516:	df 93       	push	r29
    3518:	c8 2e       	mov	r12, r24
    351a:	d6 2f       	mov	r29, r22
    351c:	8a 01       	movw	r16, r20
    351e:	d2 2e       	mov	r13, r18
    3520:	c0 e0       	ldi	r28, 0x00	; 0
    3522:	8a e0       	ldi	r24, 0x0A	; 10
    3524:	e8 2e       	mov	r14, r24
    3526:	f1 2c       	mov	r15, r1
    3528:	2c 2d       	mov	r18, r12
    352a:	2c 1b       	sub	r18, r28
    352c:	01 15       	cp	r16, r1
    352e:	11 05       	cpc	r17, r1
    3530:	11 f4       	brne	.+4      	; 0x3536 <PrintInt+0x2e>
    3532:	c1 11       	cpse	r28, r1
    3534:	07 c0       	rjmp	.+14     	; 0x3544 <PrintInt+0x3c>
    3536:	c8 01       	movw	r24, r16
    3538:	b7 01       	movw	r22, r14
    353a:	0e 94 a3 1e 	call	0x3d46	; 0x3d46 <__udivmodhi4>
    353e:	40 e1       	ldi	r20, 0x10	; 16
    3540:	48 0f       	add	r20, r24
    3542:	05 c0       	rjmp	.+10     	; 0x354e <PrintInt+0x46>
    3544:	dd 20       	and	r13, r13
    3546:	11 f0       	breq	.+4      	; 0x354c <PrintInt+0x44>
    3548:	40 e1       	ldi	r20, 0x10	; 16
    354a:	01 c0       	rjmp	.+2      	; 0x354e <PrintInt+0x46>
    354c:	40 e0       	ldi	r20, 0x00	; 0
    354e:	6d 2f       	mov	r22, r29
    3550:	82 2f       	mov	r24, r18
    3552:	0e 94 b3 10 	call	0x2166	; 0x2166 <SetFont>
    3556:	c8 01       	movw	r24, r16
    3558:	b7 01       	movw	r22, r14
    355a:	0e 94 a3 1e 	call	0x3d46	; 0x3d46 <__udivmodhi4>
    355e:	8b 01       	movw	r16, r22
    3560:	cf 5f       	subi	r28, 0xFF	; 255
    3562:	c5 30       	cpi	r28, 0x05	; 5
    3564:	09 f7       	brne	.-62     	; 0x3528 <PrintInt+0x20>
    3566:	df 91       	pop	r29
    3568:	cf 91       	pop	r28
    356a:	1f 91       	pop	r17
    356c:	0f 91       	pop	r16
    356e:	ff 90       	pop	r15
    3570:	ef 90       	pop	r14
    3572:	df 90       	pop	r13
    3574:	cf 90       	pop	r12
    3576:	08 95       	ret

00003578 <Print>:
    3578:	df 92       	push	r13
    357a:	ef 92       	push	r14
    357c:	ff 92       	push	r15
    357e:	0f 93       	push	r16
    3580:	1f 93       	push	r17
    3582:	cf 93       	push	r28
    3584:	df 93       	push	r29
    3586:	7c 01       	movw	r14, r24
    3588:	d6 2e       	mov	r13, r22
    358a:	8a 01       	movw	r16, r20
    358c:	ec 01       	movw	r28, r24
    358e:	fe 01       	movw	r30, r28
    3590:	ee 19       	sub	r30, r14
    3592:	ff 09       	sbc	r31, r15
    3594:	e0 0f       	add	r30, r16
    3596:	f1 1f       	adc	r31, r17
    3598:	e4 91       	lpm	r30, Z
    359a:	ee 23       	and	r30, r30
    359c:	49 f0       	breq	.+18     	; 0x35b0 <Print+0x38>
    359e:	ef 77       	andi	r30, 0x7F	; 127
    35a0:	40 ee       	ldi	r20, 0xE0	; 224
    35a2:	4e 0f       	add	r20, r30
    35a4:	6d 2d       	mov	r22, r13
    35a6:	8c 2f       	mov	r24, r28
    35a8:	0e 94 b3 10 	call	0x2166	; 0x2166 <SetFont>
    35ac:	21 96       	adiw	r28, 0x01	; 1
    35ae:	ef cf       	rjmp	.-34     	; 0x358e <Print+0x16>
    35b0:	df 91       	pop	r29
    35b2:	cf 91       	pop	r28
    35b4:	1f 91       	pop	r17
    35b6:	0f 91       	pop	r16
    35b8:	ff 90       	pop	r15
    35ba:	ef 90       	pop	r14
    35bc:	df 90       	pop	r13
    35be:	08 95       	ret

000035c0 <PrintChar>:
    35c0:	40 52       	subi	r20, 0x20	; 32
    35c2:	0c 94 b3 10 	jmp	0x2166	; 0x2166 <SetFont>

000035c6 <WaitVsync>:
    35c6:	0f 93       	push	r16
    35c8:	1f 93       	push	r17
    35ca:	cf 93       	push	r28
    35cc:	df 93       	push	r29
    35ce:	8c 01       	movw	r16, r24
    35d0:	c0 e0       	ldi	r28, 0x00	; 0
    35d2:	d0 e0       	ldi	r29, 0x00	; 0
    35d4:	c0 17       	cp	r28, r16
    35d6:	d1 07       	cpc	r29, r17
    35d8:	44 f4       	brge	.+16     	; 0x35ea <WaitVsync+0x24>
    35da:	0e 94 d0 10 	call	0x21a0	; 0x21a0 <GetVsyncFlag>
    35de:	88 23       	and	r24, r24
    35e0:	e1 f3       	breq	.-8      	; 0x35da <WaitVsync+0x14>
    35e2:	0e 94 d4 10 	call	0x21a8	; 0x21a8 <ClearVsyncFlag>
    35e6:	21 96       	adiw	r28, 0x01	; 1
    35e8:	f5 cf       	rjmp	.-22     	; 0x35d4 <WaitVsync+0xe>
    35ea:	df 91       	pop	r29
    35ec:	cf 91       	pop	r28
    35ee:	1f 91       	pop	r17
    35f0:	0f 91       	pop	r16
    35f2:	08 95       	ret

000035f4 <ProcessFading>:
}


//called by the kernel at each field end
void ProcessFading(){
	if(fadeActive==true){
    35f4:	80 91 b5 09 	lds	r24, 0x09B5	; 0x8009b5 <fadeActive>
    35f8:	88 23       	and	r24, r24
    35fa:	01 f1       	breq	.+64     	; 0x363c <ProcessFading+0x48>
		if(currFadeFrame==0){
    35fc:	80 91 b6 09 	lds	r24, 0x09B6	; 0x8009b6 <currFadeFrame>
    3600:	81 11       	cpse	r24, r1
    3602:	19 c0       	rjmp	.+50     	; 0x3636 <ProcessFading+0x42>
			currFadeFrame=fadeSpeed;
    3604:	80 91 b3 09 	lds	r24, 0x09B3	; 0x8009b3 <fadeSpeed>
    3608:	80 93 b6 09 	sts	0x09B6, r24	; 0x8009b6 <currFadeFrame>
			DDRC = pgm_read_byte(&(fader[fadeStep-1]));
    360c:	e0 91 b7 09 	lds	r30, 0x09B7	; 0x8009b7 <fadeStep>
    3610:	f0 e0       	ldi	r31, 0x00	; 0
    3612:	e1 52       	subi	r30, 0x21	; 33
    3614:	ff 4f       	sbci	r31, 0xFF	; 255
    3616:	e4 91       	lpm	r30, Z
    3618:	e7 b9       	out	0x07, r30	; 7
			fadeStep+=fadeDir;
    361a:	90 91 b7 09 	lds	r25, 0x09B7	; 0x8009b7 <fadeStep>
    361e:	80 91 b4 09 	lds	r24, 0x09B4	; 0x8009b4 <fadeDir>
    3622:	89 0f       	add	r24, r25
    3624:	80 93 b7 09 	sts	0x09B7, r24	; 0x8009b7 <fadeStep>
			if(fadeStep==0 || fadeStep==(FADER_STEPS+1)){
    3628:	88 23       	and	r24, r24
    362a:	11 f0       	breq	.+4      	; 0x3630 <ProcessFading+0x3c>
    362c:	8d 30       	cpi	r24, 0x0D	; 13
    362e:	31 f4       	brne	.+12     	; 0x363c <ProcessFading+0x48>
				fadeActive=false;
    3630:	10 92 b5 09 	sts	0x09B5, r1	; 0x8009b5 <fadeActive>
    3634:	08 95       	ret
			}
		}else{
			currFadeFrame--;
    3636:	81 50       	subi	r24, 0x01	; 1
    3638:	80 93 b6 09 	sts	0x09B6, r24	; 0x8009b6 <currFadeFrame>
    363c:	08 95       	ret

0000363e <getHealth>:
; Get Health
;****************************
.global getHealth
.section .text.gethealth
getHealth:
	ADD R24,R22
    363e:	86 0f       	add	r24, r22
	CLR	R25
    3640:	99 27       	eor	r25, r25
	RET
    3642:	08 95       	ret

00003644 <getScore>:
; Update the Score
;****************************
.global getScore
.section .text.getScore
getScore:
	ADD R24,R22
    3644:	86 0f       	add	r24, r22
	CLR	R25
    3646:	99 27       	eor	r25, r25
	RET
    3648:	08 95       	ret

0000364a <getMoney>:
; Update the Money
;****************************
.global getMoney
.section .text.getMoney
getMoney:
	ADD R24, R22
    364a:	86 0f       	add	r24, r22
	CLR R25
    364c:	99 27       	eor	r25, r25
    364e:	08 95       	ret

00003650 <main>:
}

int rnd(int max) {
	int result = rand() % max;
	return result;
}
    3650:	8c ee       	ldi	r24, 0xEC	; 236
    3652:	90 e0       	ldi	r25, 0x00	; 0
    3654:	0e 94 cb 10 	call	0x2196	; 0x2196 <SetFontTable>
    3658:	0e 94 53 1b 	call	0x36a6	; 0x36a6 <init>
    365c:	81 e0       	ldi	r24, 0x01	; 1
    365e:	90 e0       	ldi	r25, 0x00	; 0
    3660:	0e 94 e3 1a 	call	0x35c6	; 0x35c6 <WaitVsync>
    3664:	80 e0       	ldi	r24, 0x00	; 0
    3666:	0e 94 da 10 	call	0x21b4	; 0x21b4 <ReadJoypad>
    366a:	90 93 3f 09 	sts	0x093F, r25	; 0x80093f <buttonHeld+0x1>
    366e:	80 93 3e 09 	sts	0x093E, r24	; 0x80093e <buttonHeld>
    3672:	20 91 44 09 	lds	r18, 0x0944	; 0x800944 <buttonPrevious>
    3676:	30 91 45 09 	lds	r19, 0x0945	; 0x800945 <buttonPrevious+0x1>
    367a:	a9 01       	movw	r20, r18
    367c:	40 95       	com	r20
    367e:	50 95       	com	r21
    3680:	48 23       	and	r20, r24
    3682:	59 23       	and	r21, r25
    3684:	50 93 41 09 	sts	0x0941, r21	; 0x800941 <buttonPressed+0x1>
    3688:	40 93 40 09 	sts	0x0940, r20	; 0x800940 <buttonPressed>
    368c:	80 95       	com	r24
    368e:	90 95       	com	r25
    3690:	82 23       	and	r24, r18
    3692:	93 23       	and	r25, r19
    3694:	90 93 43 09 	sts	0x0943, r25	; 0x800943 <buttonReleased+0x1>
    3698:	80 93 42 09 	sts	0x0942, r24	; 0x800942 <buttonReleased>
    369c:	0e 94 91 1b 	call	0x3722	; 0x3722 <update>
    36a0:	0e 94 2c 1d 	call	0x3a58	; 0x3a58 <draw>
    36a4:	db cf       	rjmp	.-74     	; 0x365c <main+0xc>

000036a6 <init>:

void init() {
    36a6:	0f 93       	push	r16
    36a8:	1f 93       	push	r17
    36aa:	cf 93       	push	r28
    36ac:	df 93       	push	r29
		draw();
	}
}

int rnd(int max) {
	int result = rand() % max;
    36ae:	0e 94 39 1f 	call	0x3e72	; 0x3e72 <rand>
	return result;
}

void init() {
	heroX = rnd(SCREEN_TILES_H);
    36b2:	08 e2       	ldi	r16, 0x28	; 40
    36b4:	10 e0       	ldi	r17, 0x00	; 0
    36b6:	b8 01       	movw	r22, r16
    36b8:	0e 94 b7 1e 	call	0x3d6e	; 0x3d6e <__divmodhi4>
    36bc:	90 93 2d 09 	sts	0x092D, r25	; 0x80092d <heroX+0x1>
    36c0:	80 93 2c 09 	sts	0x092C, r24	; 0x80092c <heroX>
		draw();
	}
}

int rnd(int max) {
	int result = rand() % max;
    36c4:	0e 94 39 1f 	call	0x3e72	; 0x3e72 <rand>
	return result;
}

void init() {
	heroX = rnd(SCREEN_TILES_H);
	heroY = rnd(SCREEN_TILES_V);
    36c8:	c2 e1       	ldi	r28, 0x12	; 18
    36ca:	d0 e0       	ldi	r29, 0x00	; 0
    36cc:	be 01       	movw	r22, r28
    36ce:	0e 94 b7 1e 	call	0x3d6e	; 0x3d6e <__divmodhi4>
    36d2:	90 93 2f 09 	sts	0x092F, r25	; 0x80092f <heroY+0x1>
    36d6:	80 93 2e 09 	sts	0x092E, r24	; 0x80092e <heroY>
	enemyY = 0;
    36da:	10 92 33 09 	sts	0x0933, r1	; 0x800933 <enemyY+0x1>
    36de:	10 92 32 09 	sts	0x0932, r1	; 0x800932 <enemyY>
		draw();
	}
}

int rnd(int max) {
	int result = rand() % max;
    36e2:	0e 94 39 1f 	call	0x3e72	; 0x3e72 <rand>
void init() {
	heroX = rnd(SCREEN_TILES_H);
	heroY = rnd(SCREEN_TILES_V);
	enemyY = 0;

	enemyX = rnd(SCREEN_TILES_V);
    36e6:	be 01       	movw	r22, r28
    36e8:	0e 94 b7 1e 	call	0x3d6e	; 0x3d6e <__divmodhi4>
    36ec:	90 93 31 09 	sts	0x0931, r25	; 0x800931 <enemyX+0x1>
    36f0:	80 93 30 09 	sts	0x0930, r24	; 0x800930 <enemyX>
		draw();
	}
}

int rnd(int max) {
	int result = rand() % max;
    36f4:	0e 94 39 1f 	call	0x3e72	; 0x3e72 <rand>
	heroX = rnd(SCREEN_TILES_H);
	heroY = rnd(SCREEN_TILES_V);
	enemyY = 0;

	enemyX = rnd(SCREEN_TILES_V);
	followerY = rnd(SCREEN_TILES_V);
    36f8:	be 01       	movw	r22, r28
    36fa:	0e 94 b7 1e 	call	0x3d6e	; 0x3d6e <__divmodhi4>
    36fe:	90 93 37 09 	sts	0x0937, r25	; 0x800937 <followerY+0x1>
    3702:	80 93 36 09 	sts	0x0936, r24	; 0x800936 <followerY>
		draw();
	}
}

int rnd(int max) {
	int result = rand() % max;
    3706:	0e 94 39 1f 	call	0x3e72	; 0x3e72 <rand>
	heroY = rnd(SCREEN_TILES_V);
	enemyY = 0;

	enemyX = rnd(SCREEN_TILES_V);
	followerY = rnd(SCREEN_TILES_V);
	followerX = rnd(SCREEN_TILES_H);
    370a:	b8 01       	movw	r22, r16
    370c:	0e 94 b7 1e 	call	0x3d6e	; 0x3d6e <__divmodhi4>
    3710:	90 93 35 09 	sts	0x0935, r25	; 0x800935 <followerX+0x1>
    3714:	80 93 34 09 	sts	0x0934, r24	; 0x800934 <followerX>
}
    3718:	df 91       	pop	r29
    371a:	cf 91       	pop	r28
    371c:	1f 91       	pop	r17
    371e:	0f 91       	pop	r16
    3720:	08 95       	ret

00003722 <update>:

void update() {
    3722:	af 92       	push	r10
    3724:	bf 92       	push	r11
    3726:	cf 92       	push	r12
    3728:	df 92       	push	r13
    372a:	ef 92       	push	r14
    372c:	ff 92       	push	r15
    372e:	0f 93       	push	r16
    3730:	1f 93       	push	r17
    3732:	cf 93       	push	r28
    3734:	df 93       	push	r29

	switch(buttonPressed){
    3736:	80 91 40 09 	lds	r24, 0x0940	; 0x800940 <buttonPressed>
    373a:	90 91 41 09 	lds	r25, 0x0941	; 0x800941 <buttonPressed+0x1>
    373e:	80 32       	cpi	r24, 0x20	; 32
    3740:	91 05       	cpc	r25, r1
    3742:	d1 f0       	breq	.+52     	; 0x3778 <update+0x56>
    3744:	4c f4       	brge	.+18     	; 0x3758 <update+0x36>
    3746:	82 30       	cpi	r24, 0x02	; 2
    3748:	91 05       	cpc	r25, r1
    374a:	19 f1       	breq	.+70     	; 0x3792 <update+0x70>
    374c:	80 31       	cpi	r24, 0x10	; 16
    374e:	91 05       	cpc	r25, r1
    3750:	c1 f0       	breq	.+48     	; 0x3782 <update+0x60>
    3752:	01 97       	sbiw	r24, 0x01	; 1
    3754:	21 f5       	brne	.+72     	; 0x379e <update+0x7c>
    3756:	10 c0       	rjmp	.+32     	; 0x3778 <update+0x56>
    3758:	80 38       	cpi	r24, 0x80	; 128
    375a:	91 05       	cpc	r25, r1
    375c:	d1 f0       	breq	.+52     	; 0x3792 <update+0x70>
    375e:	24 f4       	brge	.+8      	; 0x3768 <update+0x46>
    3760:	80 34       	cpi	r24, 0x40	; 64
    3762:	91 05       	cpc	r25, r1
    3764:	89 f0       	breq	.+34     	; 0x3788 <update+0x66>
    3766:	1b c0       	rjmp	.+54     	; 0x379e <update+0x7c>
    3768:	81 15       	cp	r24, r1
    376a:	21 e0       	ldi	r18, 0x01	; 1
    376c:	92 07       	cpc	r25, r18
    376e:	49 f0       	breq	.+18     	; 0x3782 <update+0x60>
    3770:	81 15       	cp	r24, r1
    3772:	92 40       	sbci	r25, 0x02	; 2
    3774:	49 f0       	breq	.+18     	; 0x3788 <update+0x66>
    3776:	13 c0       	rjmp	.+38     	; 0x379e <update+0x7c>
		case BTN_UP:{
			MoveHero(0, -1);
			break;
		}
		case BTN_DOWN:{
			MoveHero(0, 1);
    3778:	61 e0       	ldi	r22, 0x01	; 1
    377a:	70 e0       	ldi	r23, 0x00	; 0
    377c:	80 e0       	ldi	r24, 0x00	; 0
    377e:	90 e0       	ldi	r25, 0x00	; 0
    3780:	0c c0       	rjmp	.+24     	; 0x379a <update+0x78>
		case BTN_RIGHT:{
			MoveHero(1, 0);
			break;
		}
		case BTN_A:{
			MoveHero(0, -1);
    3782:	6f ef       	ldi	r22, 0xFF	; 255
    3784:	7f ef       	ldi	r23, 0xFF	; 255
    3786:	fa cf       	rjmp	.-12     	; 0x377c <update+0x5a>
		case BTN_B:{
			MoveHero(0, 1);
			break;
		}
		case BTN_X:{
			MoveHero(-1, 0);
    3788:	60 e0       	ldi	r22, 0x00	; 0
    378a:	70 e0       	ldi	r23, 0x00	; 0
    378c:	8f ef       	ldi	r24, 0xFF	; 255
    378e:	9f ef       	ldi	r25, 0xFF	; 255
    3790:	04 c0       	rjmp	.+8      	; 0x379a <update+0x78>
			break;
		}
		case BTN_Y:{
			MoveHero(1, 0);
    3792:	60 e0       	ldi	r22, 0x00	; 0
    3794:	70 e0       	ldi	r23, 0x00	; 0
    3796:	81 e0       	ldi	r24, 0x01	; 1
    3798:	90 e0       	ldi	r25, 0x00	; 0
    379a:	0e 94 f3 1d 	call	0x3be6	; 0x3be6 <MoveHero>
		default:
			break;
	}


	buttonPrevious = buttonHeld;
    379e:	80 91 3e 09 	lds	r24, 0x093E	; 0x80093e <buttonHeld>
    37a2:	90 91 3f 09 	lds	r25, 0x093F	; 0x80093f <buttonHeld+0x1>
    37a6:	90 93 45 09 	sts	0x0945, r25	; 0x800945 <buttonPrevious+0x1>
    37aa:	80 93 44 09 	sts	0x0944, r24	; 0x800944 <buttonPrevious>
	buttonPrevious = buttonHeld;

	followerThinkTime++;
    37ae:	20 91 38 09 	lds	r18, 0x0938	; 0x800938 <followerThinkTime>
    37b2:	30 91 39 09 	lds	r19, 0x0939	; 0x800939 <followerThinkTime+0x1>
    37b6:	2f 5f       	subi	r18, 0xFF	; 255
    37b8:	3f 4f       	sbci	r19, 0xFF	; 255
    37ba:	30 93 39 09 	sts	0x0939, r19	; 0x800939 <followerThinkTime+0x1>
    37be:	20 93 38 09 	sts	0x0938, r18	; 0x800938 <followerThinkTime>
	if (followerThinkTime > followerThinkInterval) {
    37c2:	80 91 0c 01 	lds	r24, 0x010C	; 0x80010c <followerThinkInterval>
    37c6:	90 91 0d 01 	lds	r25, 0x010D	; 0x80010d <followerThinkInterval+0x1>
    37ca:	82 17       	cp	r24, r18
    37cc:	93 07       	cpc	r25, r19
    37ce:	0c f0       	brlt	.+2      	; 0x37d2 <update+0xb0>
    37d0:	40 c0       	rjmp	.+128    	; 0x3852 <update+0x130>
		if (followerX < heroX)
    37d2:	20 91 34 09 	lds	r18, 0x0934	; 0x800934 <followerX>
    37d6:	30 91 35 09 	lds	r19, 0x0935	; 0x800935 <followerX+0x1>
    37da:	40 91 2c 09 	lds	r20, 0x092C	; 0x80092c <heroX>
    37de:	50 91 2d 09 	lds	r21, 0x092D	; 0x80092d <heroX+0x1>
    37e2:	24 17       	cp	r18, r20
    37e4:	35 07       	cpc	r19, r21
    37e6:	34 f4       	brge	.+12     	; 0x37f4 <update+0xd2>
			followerX++;
    37e8:	2f 5f       	subi	r18, 0xFF	; 255
    37ea:	3f 4f       	sbci	r19, 0xFF	; 255
    37ec:	30 93 35 09 	sts	0x0935, r19	; 0x800935 <followerX+0x1>
    37f0:	20 93 34 09 	sts	0x0934, r18	; 0x800934 <followerX>
		if (followerX > heroX)
    37f4:	20 91 34 09 	lds	r18, 0x0934	; 0x800934 <followerX>
    37f8:	30 91 35 09 	lds	r19, 0x0935	; 0x800935 <followerX+0x1>
    37fc:	42 17       	cp	r20, r18
    37fe:	53 07       	cpc	r21, r19
    3800:	34 f4       	brge	.+12     	; 0x380e <update+0xec>
			followerX--;
    3802:	21 50       	subi	r18, 0x01	; 1
    3804:	31 09       	sbc	r19, r1
    3806:	30 93 35 09 	sts	0x0935, r19	; 0x800935 <followerX+0x1>
    380a:	20 93 34 09 	sts	0x0934, r18	; 0x800934 <followerX>
		if (followerY < heroY)
    380e:	20 91 36 09 	lds	r18, 0x0936	; 0x800936 <followerY>
    3812:	30 91 37 09 	lds	r19, 0x0937	; 0x800937 <followerY+0x1>
    3816:	40 91 2e 09 	lds	r20, 0x092E	; 0x80092e <heroY>
    381a:	50 91 2f 09 	lds	r21, 0x092F	; 0x80092f <heroY+0x1>
    381e:	24 17       	cp	r18, r20
    3820:	35 07       	cpc	r19, r21
    3822:	34 f4       	brge	.+12     	; 0x3830 <update+0x10e>
			followerY++;
    3824:	2f 5f       	subi	r18, 0xFF	; 255
    3826:	3f 4f       	sbci	r19, 0xFF	; 255
    3828:	30 93 37 09 	sts	0x0937, r19	; 0x800937 <followerY+0x1>
    382c:	20 93 36 09 	sts	0x0936, r18	; 0x800936 <followerY>
		if (followerY > heroY)
    3830:	20 91 36 09 	lds	r18, 0x0936	; 0x800936 <followerY>
    3834:	30 91 37 09 	lds	r19, 0x0937	; 0x800937 <followerY+0x1>
    3838:	42 17       	cp	r20, r18
    383a:	53 07       	cpc	r21, r19
    383c:	34 f4       	brge	.+12     	; 0x384a <update+0x128>
			followerY--;
    383e:	21 50       	subi	r18, 0x01	; 1
    3840:	31 09       	sbc	r19, r1
    3842:	30 93 37 09 	sts	0x0937, r19	; 0x800937 <followerY+0x1>
    3846:	20 93 36 09 	sts	0x0936, r18	; 0x800936 <followerY>
		followerThinkTime = 0;
    384a:	10 92 39 09 	sts	0x0939, r1	; 0x800939 <followerThinkTime+0x1>
    384e:	10 92 38 09 	sts	0x0938, r1	; 0x800938 <followerThinkTime>
	}
	if (score > 3 && followerThinkInterval > 0) {
    3852:	20 91 3a 09 	lds	r18, 0x093A	; 0x80093a <score>
    3856:	30 91 3b 09 	lds	r19, 0x093B	; 0x80093b <score+0x1>
    385a:	24 30       	cpi	r18, 0x04	; 4
    385c:	31 05       	cpc	r19, r1
    385e:	2c f0       	brlt	.+10     	; 0x386a <update+0x148>
    3860:	18 16       	cp	r1, r24
    3862:	19 06       	cpc	r1, r25
    3864:	6c f4       	brge	.+26     	; 0x3880 <update+0x15e>
		followerThinkInterval--;
    3866:	01 97       	sbiw	r24, 0x01	; 1
    3868:	07 c0       	rjmp	.+14     	; 0x3878 <update+0x156>
	}

	if (score == 0 && followerThinkInterval <= 0){
    386a:	23 2b       	or	r18, r19
    386c:	49 f4       	brne	.+18     	; 0x3880 <update+0x15e>
    386e:	18 16       	cp	r1, r24
    3870:	19 06       	cpc	r1, r25
    3872:	34 f0       	brlt	.+12     	; 0x3880 <update+0x15e>
		followerThinkInterval = FOLLOWER_TIME_INTERVAL;
    3874:	8c e2       	ldi	r24, 0x2C	; 44
    3876:	91 e0       	ldi	r25, 0x01	; 1
    3878:	90 93 0d 01 	sts	0x010D, r25	; 0x80010d <followerThinkInterval+0x1>
    387c:	80 93 0c 01 	sts	0x010C, r24	; 0x80010c <followerThinkInterval>
	}

	//write code to move the enemy down screen
	enemyY++;
    3880:	80 91 32 09 	lds	r24, 0x0932	; 0x800932 <enemyY>
    3884:	90 91 33 09 	lds	r25, 0x0933	; 0x800933 <enemyY+0x1>
    3888:	01 96       	adiw	r24, 0x01	; 1
    388a:	90 93 33 09 	sts	0x0933, r25	; 0x800933 <enemyY+0x1>
    388e:	80 93 32 09 	sts	0x0932, r24	; 0x800932 <enemyY>

	// check if the enemy has reached the bottom of the screen
	if (enemyY >= SCREEN_TILES_V - enemyHeight) {
    3892:	40 91 06 01 	lds	r20, 0x0106	; 0x800106 <enemyHeight>
    3896:	50 91 07 01 	lds	r21, 0x0107	; 0x800107 <enemyHeight+0x1>
    389a:	22 e1       	ldi	r18, 0x12	; 18
    389c:	30 e0       	ldi	r19, 0x00	; 0
    389e:	24 1b       	sub	r18, r20
    38a0:	35 0b       	sbc	r19, r21
    38a2:	82 17       	cp	r24, r18
    38a4:	93 07       	cpc	r25, r19
    38a6:	ac f0       	brlt	.+42     	; 0x38d2 <update+0x1b0>
		// reset enemy here..
		// to top of screen and a random y
		enemyX = rnd(SCREEN_TILES_H - enemyWidth);
    38a8:	80 91 04 01 	lds	r24, 0x0104	; 0x800104 <enemyWidth>
    38ac:	90 91 05 01 	lds	r25, 0x0105	; 0x800105 <enemyWidth+0x1>
    38b0:	c8 e2       	ldi	r28, 0x28	; 40
    38b2:	d0 e0       	ldi	r29, 0x00	; 0
    38b4:	c8 1b       	sub	r28, r24
    38b6:	d9 0b       	sbc	r29, r25
		draw();
	}
}

int rnd(int max) {
	int result = rand() % max;
    38b8:	0e 94 39 1f 	call	0x3e72	; 0x3e72 <rand>

	// check if the enemy has reached the bottom of the screen
	if (enemyY >= SCREEN_TILES_V - enemyHeight) {
		// reset enemy here..
		// to top of screen and a random y
		enemyX = rnd(SCREEN_TILES_H - enemyWidth);
    38bc:	be 01       	movw	r22, r28
    38be:	0e 94 b7 1e 	call	0x3d6e	; 0x3d6e <__divmodhi4>
    38c2:	90 93 31 09 	sts	0x0931, r25	; 0x800931 <enemyX+0x1>
    38c6:	80 93 30 09 	sts	0x0930, r24	; 0x800930 <enemyX>
		enemyY = 0;
    38ca:	10 92 33 09 	sts	0x0933, r1	; 0x800933 <enemyY+0x1>
    38ce:	10 92 32 09 	sts	0x0932, r1	; 0x800932 <enemyY>
	}
	if (checkCollision(heroX, heroY, heroWidth, heroHeight, enemyX, enemyY,
    38d2:	a0 90 06 01 	lds	r10, 0x0106	; 0x800106 <enemyHeight>
    38d6:	b0 90 07 01 	lds	r11, 0x0107	; 0x800107 <enemyHeight+0x1>
    38da:	c0 90 04 01 	lds	r12, 0x0104	; 0x800104 <enemyWidth>
    38de:	d0 90 05 01 	lds	r13, 0x0105	; 0x800105 <enemyWidth+0x1>
    38e2:	e0 90 32 09 	lds	r14, 0x0932	; 0x800932 <enemyY>
    38e6:	f0 90 33 09 	lds	r15, 0x0933	; 0x800933 <enemyY+0x1>
    38ea:	00 91 30 09 	lds	r16, 0x0930	; 0x800930 <enemyX>
    38ee:	10 91 31 09 	lds	r17, 0x0931	; 0x800931 <enemyX+0x1>
    38f2:	20 91 02 01 	lds	r18, 0x0102	; 0x800102 <heroHeight>
    38f6:	30 91 03 01 	lds	r19, 0x0103	; 0x800103 <heroHeight+0x1>
    38fa:	40 91 00 01 	lds	r20, 0x0100	; 0x800100 <__data_start>
    38fe:	50 91 01 01 	lds	r21, 0x0101	; 0x800101 <__data_start+0x1>
    3902:	60 91 2e 09 	lds	r22, 0x092E	; 0x80092e <heroY>
    3906:	70 91 2f 09 	lds	r23, 0x092F	; 0x80092f <heroY+0x1>
    390a:	80 91 2c 09 	lds	r24, 0x092C	; 0x80092c <heroX>
    390e:	90 91 2d 09 	lds	r25, 0x092D	; 0x80092d <heroX+0x1>
    3912:	0e 94 cc 1d 	call	0x3b98	; 0x3b98 <checkCollision>
    3916:	88 23       	and	r24, r24
    3918:	c1 f1       	breq	.+112    	; 0x398a <update+0x268>
			enemyWidth, enemyHeight) == true) {
		// write code to add score and reset enemy
		score = getScore(score, 1);
    391a:	61 e0       	ldi	r22, 0x01	; 1
    391c:	70 e0       	ldi	r23, 0x00	; 0
    391e:	80 91 3a 09 	lds	r24, 0x093A	; 0x80093a <score>
    3922:	90 91 3b 09 	lds	r25, 0x093B	; 0x80093b <score+0x1>
    3926:	0e 94 22 1b 	call	0x3644	; 0x3644 <getScore>
    392a:	90 93 3b 09 	sts	0x093B, r25	; 0x80093b <score+0x1>
    392e:	80 93 3a 09 	sts	0x093A, r24	; 0x80093a <score>
		if(score >= 5)
    3932:	85 30       	cpi	r24, 0x05	; 5
    3934:	91 05       	cpc	r25, r1
    3936:	a4 f0       	brlt	.+40     	; 0x3960 <update+0x23e>
		{
			score = getScore(score,-5);
    3938:	6b ef       	ldi	r22, 0xFB	; 251
    393a:	7f ef       	ldi	r23, 0xFF	; 255
    393c:	0e 94 22 1b 	call	0x3644	; 0x3644 <getScore>
    3940:	90 93 3b 09 	sts	0x093B, r25	; 0x80093b <score+0x1>
    3944:	80 93 3a 09 	sts	0x093A, r24	; 0x80093a <score>
			money = getMoney(money,1);
    3948:	61 e0       	ldi	r22, 0x01	; 1
    394a:	70 e0       	ldi	r23, 0x00	; 0
    394c:	80 91 3c 09 	lds	r24, 0x093C	; 0x80093c <money>
    3950:	90 91 3d 09 	lds	r25, 0x093D	; 0x80093d <money+0x1>
    3954:	0e 94 25 1b 	call	0x364a	; 0x364a <getMoney>
    3958:	90 93 3d 09 	sts	0x093D, r25	; 0x80093d <money+0x1>
    395c:	80 93 3c 09 	sts	0x093C, r24	; 0x80093c <money>
		}
		enemyX = rnd(SCREEN_TILES_H - enemyWidth);
    3960:	80 91 04 01 	lds	r24, 0x0104	; 0x800104 <enemyWidth>
    3964:	90 91 05 01 	lds	r25, 0x0105	; 0x800105 <enemyWidth+0x1>
    3968:	c8 e2       	ldi	r28, 0x28	; 40
    396a:	d0 e0       	ldi	r29, 0x00	; 0
    396c:	c8 1b       	sub	r28, r24
    396e:	d9 0b       	sbc	r29, r25
		draw();
	}
}

int rnd(int max) {
	int result = rand() % max;
    3970:	0e 94 39 1f 	call	0x3e72	; 0x3e72 <rand>
		if(score >= 5)
		{
			score = getScore(score,-5);
			money = getMoney(money,1);
		}
		enemyX = rnd(SCREEN_TILES_H - enemyWidth);
    3974:	be 01       	movw	r22, r28
    3976:	0e 94 b7 1e 	call	0x3d6e	; 0x3d6e <__divmodhi4>
    397a:	90 93 31 09 	sts	0x0931, r25	; 0x800931 <enemyX+0x1>
    397e:	80 93 30 09 	sts	0x0930, r24	; 0x800930 <enemyX>
		enemyY = 0;
    3982:	10 92 33 09 	sts	0x0933, r1	; 0x800933 <enemyY+0x1>
    3986:	10 92 32 09 	sts	0x0932, r1	; 0x800932 <enemyY>
	}

	if (checkCollision(heroX, heroY, heroWidth, heroHeight, followerX,
    398a:	a0 90 0a 01 	lds	r10, 0x010A	; 0x80010a <followerHeight>
    398e:	b0 90 0b 01 	lds	r11, 0x010B	; 0x80010b <followerHeight+0x1>
    3992:	c0 90 08 01 	lds	r12, 0x0108	; 0x800108 <followerWidth>
    3996:	d0 90 09 01 	lds	r13, 0x0109	; 0x800109 <followerWidth+0x1>
    399a:	e0 90 36 09 	lds	r14, 0x0936	; 0x800936 <followerY>
    399e:	f0 90 37 09 	lds	r15, 0x0937	; 0x800937 <followerY+0x1>
    39a2:	00 91 34 09 	lds	r16, 0x0934	; 0x800934 <followerX>
    39a6:	10 91 35 09 	lds	r17, 0x0935	; 0x800935 <followerX+0x1>
    39aa:	20 91 02 01 	lds	r18, 0x0102	; 0x800102 <heroHeight>
    39ae:	30 91 03 01 	lds	r19, 0x0103	; 0x800103 <heroHeight+0x1>
    39b2:	40 91 00 01 	lds	r20, 0x0100	; 0x800100 <__data_start>
    39b6:	50 91 01 01 	lds	r21, 0x0101	; 0x800101 <__data_start+0x1>
    39ba:	60 91 2e 09 	lds	r22, 0x092E	; 0x80092e <heroY>
    39be:	70 91 2f 09 	lds	r23, 0x092F	; 0x80092f <heroY+0x1>
    39c2:	80 91 2c 09 	lds	r24, 0x092C	; 0x80092c <heroX>
    39c6:	90 91 2d 09 	lds	r25, 0x092D	; 0x80092d <heroX+0x1>
    39ca:	0e 94 cc 1d 	call	0x3b98	; 0x3b98 <checkCollision>
    39ce:	88 23       	and	r24, r24
    39d0:	c1 f1       	breq	.+112    	; 0x3a42 <update+0x320>
			followerY, followerWidth, followerHeight) == true) {
		// write code to add score and reset enemy
		score = getScore(score, -1);
    39d2:	6f ef       	ldi	r22, 0xFF	; 255
    39d4:	7f ef       	ldi	r23, 0xFF	; 255
    39d6:	80 91 3a 09 	lds	r24, 0x093A	; 0x80093a <score>
    39da:	90 91 3b 09 	lds	r25, 0x093B	; 0x80093b <score+0x1>
    39de:	0e 94 22 1b 	call	0x3644	; 0x3644 <getScore>
    39e2:	90 93 3b 09 	sts	0x093B, r25	; 0x80093b <score+0x1>
    39e6:	80 93 3a 09 	sts	0x093A, r24	; 0x80093a <score>
		health = getHealth(health, -1);
    39ea:	6f ef       	ldi	r22, 0xFF	; 255
    39ec:	7f ef       	ldi	r23, 0xFF	; 255
    39ee:	80 91 0e 01 	lds	r24, 0x010E	; 0x80010e <health>
    39f2:	90 91 0f 01 	lds	r25, 0x010F	; 0x80010f <health+0x1>
    39f6:	0e 94 1f 1b 	call	0x363e	; 0x363e <getHealth>
    39fa:	90 93 0f 01 	sts	0x010F, r25	; 0x80010f <health+0x1>
    39fe:	80 93 0e 01 	sts	0x010E, r24	; 0x80010e <health>
		if(score <= 0 )
    3a02:	80 91 3a 09 	lds	r24, 0x093A	; 0x80093a <score>
    3a06:	90 91 3b 09 	lds	r25, 0x093B	; 0x80093b <score+0x1>
    3a0a:	18 16       	cp	r1, r24
    3a0c:	19 06       	cpc	r1, r25
    3a0e:	24 f0       	brlt	.+8      	; 0x3a18 <update+0x2f6>
		{
			score = 0;
    3a10:	10 92 3b 09 	sts	0x093B, r1	; 0x80093b <score+0x1>
    3a14:	10 92 3a 09 	sts	0x093A, r1	; 0x80093a <score>
		}
		followerX = rnd(SCREEN_TILES_H - followerWidth);
    3a18:	80 91 08 01 	lds	r24, 0x0108	; 0x800108 <followerWidth>
    3a1c:	90 91 09 01 	lds	r25, 0x0109	; 0x800109 <followerWidth+0x1>
    3a20:	c8 e2       	ldi	r28, 0x28	; 40
    3a22:	d0 e0       	ldi	r29, 0x00	; 0
    3a24:	c8 1b       	sub	r28, r24
    3a26:	d9 0b       	sbc	r29, r25
		draw();
	}
}

int rnd(int max) {
	int result = rand() % max;
    3a28:	0e 94 39 1f 	call	0x3e72	; 0x3e72 <rand>
		health = getHealth(health, -1);
		if(score <= 0 )
		{
			score = 0;
		}
		followerX = rnd(SCREEN_TILES_H - followerWidth);
    3a2c:	be 01       	movw	r22, r28
    3a2e:	0e 94 b7 1e 	call	0x3d6e	; 0x3d6e <__divmodhi4>
    3a32:	90 93 35 09 	sts	0x0935, r25	; 0x800935 <followerX+0x1>
    3a36:	80 93 34 09 	sts	0x0934, r24	; 0x800934 <followerX>
		followerY = 0;
    3a3a:	10 92 37 09 	sts	0x0937, r1	; 0x800937 <followerY+0x1>
    3a3e:	10 92 36 09 	sts	0x0936, r1	; 0x800936 <followerY>
	}
}
    3a42:	df 91       	pop	r29
    3a44:	cf 91       	pop	r28
    3a46:	1f 91       	pop	r17
    3a48:	0f 91       	pop	r16
    3a4a:	ff 90       	pop	r15
    3a4c:	ef 90       	pop	r14
    3a4e:	df 90       	pop	r13
    3a50:	cf 90       	pop	r12
    3a52:	bf 90       	pop	r11
    3a54:	af 90       	pop	r10
    3a56:	08 95       	ret

00003a58 <draw>:

void draw() {
    3a58:	0f 93       	push	r16
	//Clear the screen (fills Vram with tile zero)
	ClearVram();
    3a5a:	0e 94 a5 10 	call	0x214a	; 0x214a <ClearVram>
	Print(1, 0, PSTR("Artefacts"));
    3a5e:	44 ea       	ldi	r20, 0xA4	; 164
    3a60:	5b e1       	ldi	r21, 0x1B	; 27
    3a62:	60 e0       	ldi	r22, 0x00	; 0
    3a64:	70 e0       	ldi	r23, 0x00	; 0
    3a66:	81 e0       	ldi	r24, 0x01	; 1
    3a68:	90 e0       	ldi	r25, 0x00	; 0
    3a6a:	0e 94 bc 1a 	call	0x3578	; 0x3578 <Print>
	PrintInt(14, 0, score, false);
    3a6e:	40 91 3a 09 	lds	r20, 0x093A	; 0x80093a <score>
    3a72:	50 91 3b 09 	lds	r21, 0x093B	; 0x80093b <score+0x1>
    3a76:	20 e0       	ldi	r18, 0x00	; 0
    3a78:	60 e0       	ldi	r22, 0x00	; 0
    3a7a:	70 e0       	ldi	r23, 0x00	; 0
    3a7c:	8e e0       	ldi	r24, 0x0E	; 14
    3a7e:	90 e0       	ldi	r25, 0x00	; 0
    3a80:	0e 94 84 1a 	call	0x3508	; 0x3508 <PrintInt>
	PrintInt(19, 0, heroX, false);
    3a84:	40 91 2c 09 	lds	r20, 0x092C	; 0x80092c <heroX>
    3a88:	50 91 2d 09 	lds	r21, 0x092D	; 0x80092d <heroX+0x1>
    3a8c:	20 e0       	ldi	r18, 0x00	; 0
    3a8e:	60 e0       	ldi	r22, 0x00	; 0
    3a90:	70 e0       	ldi	r23, 0x00	; 0
    3a92:	83 e1       	ldi	r24, 0x13	; 19
    3a94:	90 e0       	ldi	r25, 0x00	; 0
    3a96:	0e 94 84 1a 	call	0x3508	; 0x3508 <PrintInt>
	PrintInt(24, 0, heroY, false);
    3a9a:	40 91 2e 09 	lds	r20, 0x092E	; 0x80092e <heroY>
    3a9e:	50 91 2f 09 	lds	r21, 0x092F	; 0x80092f <heroY+0x1>
    3aa2:	20 e0       	ldi	r18, 0x00	; 0
    3aa4:	60 e0       	ldi	r22, 0x00	; 0
    3aa6:	70 e0       	ldi	r23, 0x00	; 0
    3aa8:	88 e1       	ldi	r24, 0x18	; 24
    3aaa:	90 e0       	ldi	r25, 0x00	; 0
    3aac:	0e 94 84 1a 	call	0x3508	; 0x3508 <PrintInt>
	Print(27, 0, PSTR("Health"));
    3ab0:	4e ea       	ldi	r20, 0xAE	; 174
    3ab2:	5b e1       	ldi	r21, 0x1B	; 27
    3ab4:	60 e0       	ldi	r22, 0x00	; 0
    3ab6:	70 e0       	ldi	r23, 0x00	; 0
    3ab8:	8b e1       	ldi	r24, 0x1B	; 27
    3aba:	90 e0       	ldi	r25, 0x00	; 0
    3abc:	0e 94 bc 1a 	call	0x3578	; 0x3578 <Print>
	PrintInt(37, 0, health, false);
    3ac0:	40 91 0e 01 	lds	r20, 0x010E	; 0x80010e <health>
    3ac4:	50 91 0f 01 	lds	r21, 0x010F	; 0x80010f <health+0x1>
    3ac8:	20 e0       	ldi	r18, 0x00	; 0
    3aca:	60 e0       	ldi	r22, 0x00	; 0
    3acc:	70 e0       	ldi	r23, 0x00	; 0
    3ace:	85 e2       	ldi	r24, 0x25	; 37
    3ad0:	90 e0       	ldi	r25, 0x00	; 0
    3ad2:	0e 94 84 1a 	call	0x3508	; 0x3508 <PrintInt>
	Print(1, 17, PSTR("EnemyHealth"));
    3ad6:	45 eb       	ldi	r20, 0xB5	; 181
    3ad8:	5b e1       	ldi	r21, 0x1B	; 27
    3ada:	61 e1       	ldi	r22, 0x11	; 17
    3adc:	70 e0       	ldi	r23, 0x00	; 0
    3ade:	81 e0       	ldi	r24, 0x01	; 1
    3ae0:	90 e0       	ldi	r25, 0x00	; 0
    3ae2:	0e 94 bc 1a 	call	0x3578	; 0x3578 <Print>
	PrintInt(16, 17, enemyHealth, false);
    3ae6:	40 91 10 01 	lds	r20, 0x0110	; 0x800110 <enemyHealth>
    3aea:	50 91 11 01 	lds	r21, 0x0111	; 0x800111 <enemyHealth+0x1>
    3aee:	20 e0       	ldi	r18, 0x00	; 0
    3af0:	61 e1       	ldi	r22, 0x11	; 17
    3af2:	70 e0       	ldi	r23, 0x00	; 0
    3af4:	80 e1       	ldi	r24, 0x10	; 16
    3af6:	90 e0       	ldi	r25, 0x00	; 0
    3af8:	0e 94 84 1a 	call	0x3508	; 0x3508 <PrintInt>
	Print(27,17,PSTR("Money"));
    3afc:	41 ec       	ldi	r20, 0xC1	; 193
    3afe:	5b e1       	ldi	r21, 0x1B	; 27
    3b00:	61 e1       	ldi	r22, 0x11	; 17
    3b02:	70 e0       	ldi	r23, 0x00	; 0
    3b04:	8b e1       	ldi	r24, 0x1B	; 27
    3b06:	90 e0       	ldi	r25, 0x00	; 0
    3b08:	0e 94 bc 1a 	call	0x3578	; 0x3578 <Print>
	PrintInt (37,17,money,false);
    3b0c:	40 91 3c 09 	lds	r20, 0x093C	; 0x80093c <money>
    3b10:	50 91 3d 09 	lds	r21, 0x093D	; 0x80093d <money+0x1>
    3b14:	20 e0       	ldi	r18, 0x00	; 0
    3b16:	61 e1       	ldi	r22, 0x11	; 17
    3b18:	70 e0       	ldi	r23, 0x00	; 0
    3b1a:	85 e2       	ldi	r24, 0x25	; 37
    3b1c:	90 e0       	ldi	r25, 0x00	; 0
    3b1e:	0e 94 84 1a 	call	0x3508	; 0x3508 <PrintInt>
	drawRectangle(heroX, heroY, heroWidth, heroHeight, '0');
    3b22:	20 91 02 01 	lds	r18, 0x0102	; 0x800102 <heroHeight>
    3b26:	30 91 03 01 	lds	r19, 0x0103	; 0x800103 <heroHeight+0x1>
    3b2a:	40 91 00 01 	lds	r20, 0x0100	; 0x800100 <__data_start>
    3b2e:	50 91 01 01 	lds	r21, 0x0101	; 0x800101 <__data_start+0x1>
    3b32:	60 91 2e 09 	lds	r22, 0x092E	; 0x80092e <heroY>
    3b36:	70 91 2f 09 	lds	r23, 0x092F	; 0x80092f <heroY+0x1>
    3b3a:	00 e3       	ldi	r16, 0x30	; 48
    3b3c:	80 91 2c 09 	lds	r24, 0x092C	; 0x80092c <heroX>
    3b40:	90 91 2d 09 	lds	r25, 0x092D	; 0x80092d <heroX+0x1>
    3b44:	0e 94 39 1e 	call	0x3c72	; 0x3c72 <drawRectangle>
	drawRectangle(enemyX, enemyY, enemyWidth, enemyHeight, '$');
    3b48:	20 91 06 01 	lds	r18, 0x0106	; 0x800106 <enemyHeight>
    3b4c:	30 91 07 01 	lds	r19, 0x0107	; 0x800107 <enemyHeight+0x1>
    3b50:	40 91 04 01 	lds	r20, 0x0104	; 0x800104 <enemyWidth>
    3b54:	50 91 05 01 	lds	r21, 0x0105	; 0x800105 <enemyWidth+0x1>
    3b58:	60 91 32 09 	lds	r22, 0x0932	; 0x800932 <enemyY>
    3b5c:	70 91 33 09 	lds	r23, 0x0933	; 0x800933 <enemyY+0x1>
    3b60:	04 e2       	ldi	r16, 0x24	; 36
    3b62:	80 91 30 09 	lds	r24, 0x0930	; 0x800930 <enemyX>
    3b66:	90 91 31 09 	lds	r25, 0x0931	; 0x800931 <enemyX+0x1>
    3b6a:	0e 94 39 1e 	call	0x3c72	; 0x3c72 <drawRectangle>
	drawRectangle(followerX, followerY, followerWidth, followerHeight, 'X');
    3b6e:	20 91 0a 01 	lds	r18, 0x010A	; 0x80010a <followerHeight>
    3b72:	30 91 0b 01 	lds	r19, 0x010B	; 0x80010b <followerHeight+0x1>
    3b76:	40 91 08 01 	lds	r20, 0x0108	; 0x800108 <followerWidth>
    3b7a:	50 91 09 01 	lds	r21, 0x0109	; 0x800109 <followerWidth+0x1>
    3b7e:	60 91 36 09 	lds	r22, 0x0936	; 0x800936 <followerY>
    3b82:	70 91 37 09 	lds	r23, 0x0937	; 0x800937 <followerY+0x1>
    3b86:	08 e5       	ldi	r16, 0x58	; 88
    3b88:	80 91 34 09 	lds	r24, 0x0934	; 0x800934 <followerX>
    3b8c:	90 91 35 09 	lds	r25, 0x0935	; 0x800935 <followerX+0x1>
    3b90:	0e 94 39 1e 	call	0x3c72	; 0x3c72 <drawRectangle>
}
    3b94:	0f 91       	pop	r16
    3b96:	08 95       	ret

00003b98 <checkCollision>:

bool checkCollision(int x1, int y1, int width1, int height1, int x2, int y2,
		int width2, int height2) {
    3b98:	af 92       	push	r10
    3b9a:	bf 92       	push	r11
    3b9c:	cf 92       	push	r12
    3b9e:	df 92       	push	r13
    3ba0:	ef 92       	push	r14
    3ba2:	ff 92       	push	r15
    3ba4:	0f 93       	push	r16
    3ba6:	1f 93       	push	r17
	// write the code to return true if collided.
	if (x1 + width1 < x2 || y1 + height1 < y2 || x1 > x2 + width2
    3ba8:	48 0f       	add	r20, r24
    3baa:	59 1f       	adc	r21, r25
    3bac:	40 17       	cp	r20, r16
    3bae:	51 07       	cpc	r21, r17
    3bb0:	84 f0       	brlt	.+32     	; 0x3bd2 <checkCollision+0x3a>
    3bb2:	26 0f       	add	r18, r22
    3bb4:	37 1f       	adc	r19, r23
    3bb6:	2e 15       	cp	r18, r14
    3bb8:	3f 05       	cpc	r19, r15
    3bba:	5c f0       	brlt	.+22     	; 0x3bd2 <checkCollision+0x3a>
    3bbc:	c0 0e       	add	r12, r16
    3bbe:	d1 1e       	adc	r13, r17
    3bc0:	c8 16       	cp	r12, r24
    3bc2:	d9 06       	cpc	r13, r25
    3bc4:	34 f0       	brlt	.+12     	; 0x3bd2 <checkCollision+0x3a>
			|| y1 > y2 + height2) {
    3bc6:	ae 0c       	add	r10, r14
    3bc8:	bf 1c       	adc	r11, r15
    3bca:	81 e0       	ldi	r24, 0x01	; 1
    3bcc:	a6 16       	cp	r10, r22
    3bce:	b7 06       	cpc	r11, r23
    3bd0:	0c f4       	brge	.+2      	; 0x3bd4 <checkCollision+0x3c>
		return false;
    3bd2:	80 e0       	ldi	r24, 0x00	; 0
	} else {
		return true;
	}
}
    3bd4:	1f 91       	pop	r17
    3bd6:	0f 91       	pop	r16
    3bd8:	ff 90       	pop	r15
    3bda:	ef 90       	pop	r14
    3bdc:	df 90       	pop	r13
    3bde:	cf 90       	pop	r12
    3be0:	bf 90       	pop	r11
    3be2:	af 90       	pop	r10
    3be4:	08 95       	ret

00003be6 <MoveHero>:

void MoveHero(int x, int y) {
    3be6:	ef 92       	push	r14
    3be8:	ff 92       	push	r15
    3bea:	0f 93       	push	r16
    3bec:	1f 93       	push	r17
    3bee:	cf 93       	push	r28
    3bf0:	df 93       	push	r29
	// write code to move hero
	heroX = heroX + x;
    3bf2:	00 91 2c 09 	lds	r16, 0x092C	; 0x80092c <heroX>
    3bf6:	10 91 2d 09 	lds	r17, 0x092D	; 0x80092d <heroX+0x1>
    3bfa:	f8 01       	movw	r30, r16
    3bfc:	e8 0f       	add	r30, r24
    3bfe:	f9 1f       	adc	r31, r25
    3c00:	f0 93 2d 09 	sts	0x092D, r31	; 0x80092d <heroX+0x1>
    3c04:	e0 93 2c 09 	sts	0x092C, r30	; 0x80092c <heroX>
	heroY = heroY + y;
    3c08:	c0 91 2e 09 	lds	r28, 0x092E	; 0x80092e <heroY>
    3c0c:	d0 91 2f 09 	lds	r29, 0x092F	; 0x80092f <heroY+0x1>
    3c10:	9e 01       	movw	r18, r28
    3c12:	26 0f       	add	r18, r22
    3c14:	37 1f       	adc	r19, r23
    3c16:	30 93 2f 09 	sts	0x092F, r19	; 0x80092f <heroY+0x1>
    3c1a:	20 93 2e 09 	sts	0x092E, r18	; 0x80092e <heroY>

	// write code to check if the hero is inside the window
	if (heroX < 0 || heroX + (TILE_WIDTH / heroWidth) >= SCREEN_TILES_H || heroY < 0
    3c1e:	f7 fd       	sbrc	r31, 7
    3c20:	19 c0       	rjmp	.+50     	; 0x3c54 <MoveHero+0x6e>
    3c22:	e0 90 00 01 	lds	r14, 0x0100	; 0x800100 <__data_start>
    3c26:	f0 90 01 01 	lds	r15, 0x0101	; 0x800101 <__data_start+0x1>
    3c2a:	86 e0       	ldi	r24, 0x06	; 6
    3c2c:	90 e0       	ldi	r25, 0x00	; 0
    3c2e:	b7 01       	movw	r22, r14
    3c30:	0e 94 b7 1e 	call	0x3d6e	; 0x3d6e <__divmodhi4>
    3c34:	e6 0f       	add	r30, r22
    3c36:	f7 1f       	adc	r31, r23
    3c38:	b8 97       	sbiw	r30, 0x28	; 40
    3c3a:	64 f4       	brge	.+24     	; 0x3c54 <MoveHero+0x6e>
    3c3c:	37 fd       	sbrc	r19, 7
    3c3e:	0a c0       	rjmp	.+20     	; 0x3c54 <MoveHero+0x6e>
			|| heroY + (TILE_HEIGHT / heroWidth) >= SCREEN_TILES_V ) {
    3c40:	8c e0       	ldi	r24, 0x0C	; 12
    3c42:	90 e0       	ldi	r25, 0x00	; 0
    3c44:	b7 01       	movw	r22, r14
    3c46:	0e 94 b7 1e 	call	0x3d6e	; 0x3d6e <__divmodhi4>
    3c4a:	26 0f       	add	r18, r22
    3c4c:	37 1f       	adc	r19, r23
    3c4e:	22 31       	cpi	r18, 0x12	; 18
    3c50:	31 05       	cpc	r19, r1
    3c52:	44 f0       	brlt	.+16     	; 0x3c64 <MoveHero+0x7e>
		heroX = heroX - x;
    3c54:	10 93 2d 09 	sts	0x092D, r17	; 0x80092d <heroX+0x1>
    3c58:	00 93 2c 09 	sts	0x092C, r16	; 0x80092c <heroX>
		heroY = heroY - y;
    3c5c:	d0 93 2f 09 	sts	0x092F, r29	; 0x80092f <heroY+0x1>
    3c60:	c0 93 2e 09 	sts	0x092E, r28	; 0x80092e <heroY>
	}
}
    3c64:	df 91       	pop	r29
    3c66:	cf 91       	pop	r28
    3c68:	1f 91       	pop	r17
    3c6a:	0f 91       	pop	r16
    3c6c:	ff 90       	pop	r15
    3c6e:	ef 90       	pop	r14
    3c70:	08 95       	ret

00003c72 <drawRectangle>:

void drawRectangle(int x, int y, int width, int height, char c) {
    3c72:	5f 92       	push	r5
    3c74:	6f 92       	push	r6
    3c76:	7f 92       	push	r7
    3c78:	8f 92       	push	r8
    3c7a:	9f 92       	push	r9
    3c7c:	af 92       	push	r10
    3c7e:	bf 92       	push	r11
    3c80:	cf 92       	push	r12
    3c82:	df 92       	push	r13
    3c84:	ef 92       	push	r14
    3c86:	ff 92       	push	r15
    3c88:	0f 93       	push	r16
    3c8a:	1f 93       	push	r17
    3c8c:	cf 93       	push	r28
    3c8e:	df 93       	push	r29
	if (x < SCREEN_TILES_H && y < SCREEN_TILES_V) {
    3c90:	88 32       	cpi	r24, 0x28	; 40
    3c92:	91 05       	cpc	r25, r1
    3c94:	0c f0       	brlt	.+2      	; 0x3c98 <drawRectangle+0x26>
    3c96:	47 c0       	rjmp	.+142    	; 0x3d26 <drawRectangle+0xb4>
    3c98:	62 31       	cpi	r22, 0x12	; 18
    3c9a:	71 05       	cpc	r23, r1
    3c9c:	0c f0       	brlt	.+2      	; 0x3ca0 <drawRectangle+0x2e>
    3c9e:	43 c0       	rjmp	.+134    	; 0x3d26 <drawRectangle+0xb4>
    3ca0:	50 2e       	mov	r5, r16
    3ca2:	49 01       	movw	r8, r18
    3ca4:	ea 01       	movw	r28, r20
    3ca6:	7b 01       	movw	r14, r22
    3ca8:	8c 01       	movw	r16, r24
    3caa:	3c 01       	movw	r6, r24

		for (int i = 0; i < width; i++) {
			if (x + i < SCREEN_TILES_H && y < SCREEN_TILES_V) {
				PrintChar(x + i, y, c);
			}
			if (y + height - 1 < SCREEN_TILES_V) {
    3cac:	6b 01       	movw	r12, r22
    3cae:	c2 0e       	add	r12, r18
    3cb0:	d3 1e       	adc	r13, r19
				PrintChar(x + i, y + height - 1, c);
    3cb2:	56 01       	movw	r10, r12
    3cb4:	81 e0       	ldi	r24, 0x01	; 1
    3cb6:	a8 1a       	sub	r10, r24
    3cb8:	b1 08       	sbc	r11, r1
}

void drawRectangle(int x, int y, int width, int height, char c) {
	if (x < SCREEN_TILES_H && y < SCREEN_TILES_V) {

		for (int i = 0; i < width; i++) {
    3cba:	c3 01       	movw	r24, r6
    3cbc:	80 1b       	sub	r24, r16
    3cbe:	91 0b       	sbc	r25, r17
    3cc0:	8c 17       	cp	r24, r28
    3cc2:	9d 07       	cpc	r25, r29
    3cc4:	b4 f4       	brge	.+44     	; 0x3cf2 <drawRectangle+0x80>
			if (x + i < SCREEN_TILES_H && y < SCREEN_TILES_V) {
    3cc6:	88 e2       	ldi	r24, 0x28	; 40
    3cc8:	68 16       	cp	r6, r24
    3cca:	71 04       	cpc	r7, r1
    3ccc:	2c f4       	brge	.+10     	; 0x3cd8 <drawRectangle+0x66>
				PrintChar(x + i, y, c);
    3cce:	45 2d       	mov	r20, r5
    3cd0:	b7 01       	movw	r22, r14
    3cd2:	c3 01       	movw	r24, r6
    3cd4:	0e 94 e0 1a 	call	0x35c0	; 0x35c0 <PrintChar>
			}
			if (y + height - 1 < SCREEN_TILES_V) {
    3cd8:	83 e1       	ldi	r24, 0x13	; 19
    3cda:	c8 16       	cp	r12, r24
    3cdc:	d1 04       	cpc	r13, r1
    3cde:	2c f4       	brge	.+10     	; 0x3cea <drawRectangle+0x78>
				PrintChar(x + i, y + height - 1, c);
    3ce0:	45 2d       	mov	r20, r5
    3ce2:	b5 01       	movw	r22, r10
    3ce4:	c3 01       	movw	r24, r6
    3ce6:	0e 94 e0 1a 	call	0x35c0	; 0x35c0 <PrintChar>
    3cea:	8f ef       	ldi	r24, 0xFF	; 255
    3cec:	68 1a       	sub	r6, r24
    3cee:	78 0a       	sbc	r7, r24
    3cf0:	e4 cf       	rjmp	.-56     	; 0x3cba <drawRectangle+0x48>
}

void drawRectangle(int x, int y, int width, int height, char c) {
	if (x < SCREEN_TILES_H && y < SCREEN_TILES_V) {

		for (int i = 0; i < width; i++) {
    3cf2:	cc 24       	eor	r12, r12
    3cf4:	c3 94       	inc	r12
    3cf6:	d1 2c       	mov	r13, r1
				PrintChar(x + i, y + height - 1, c);
			}
		}
		for (int i = 1; i < height; i++) {
			PrintChar(x, y + i, c);
			PrintChar(x + width - 1, y + i, c);
    3cf8:	c0 0f       	add	r28, r16
    3cfa:	d1 1f       	adc	r29, r17
    3cfc:	21 97       	sbiw	r28, 0x01	; 1
			}
			if (y + height - 1 < SCREEN_TILES_V) {
				PrintChar(x + i, y + height - 1, c);
			}
		}
		for (int i = 1; i < height; i++) {
    3cfe:	c8 14       	cp	r12, r8
    3d00:	d9 04       	cpc	r13, r9
    3d02:	8c f4       	brge	.+34     	; 0x3d26 <drawRectangle+0xb4>
    3d04:	57 01       	movw	r10, r14
    3d06:	ac 0c       	add	r10, r12
    3d08:	bd 1c       	adc	r11, r13
			PrintChar(x, y + i, c);
    3d0a:	45 2d       	mov	r20, r5
    3d0c:	b5 01       	movw	r22, r10
    3d0e:	c8 01       	movw	r24, r16
    3d10:	0e 94 e0 1a 	call	0x35c0	; 0x35c0 <PrintChar>
			PrintChar(x + width - 1, y + i, c);
    3d14:	45 2d       	mov	r20, r5
    3d16:	b5 01       	movw	r22, r10
    3d18:	ce 01       	movw	r24, r28
    3d1a:	0e 94 e0 1a 	call	0x35c0	; 0x35c0 <PrintChar>
			}
			if (y + height - 1 < SCREEN_TILES_V) {
				PrintChar(x + i, y + height - 1, c);
			}
		}
		for (int i = 1; i < height; i++) {
    3d1e:	8f ef       	ldi	r24, 0xFF	; 255
    3d20:	c8 1a       	sub	r12, r24
    3d22:	d8 0a       	sbc	r13, r24
    3d24:	ec cf       	rjmp	.-40     	; 0x3cfe <drawRectangle+0x8c>
			PrintChar(x, y + i, c);
			PrintChar(x + width - 1, y + i, c);
		}
	}
}
    3d26:	df 91       	pop	r29
    3d28:	cf 91       	pop	r28
    3d2a:	1f 91       	pop	r17
    3d2c:	0f 91       	pop	r16
    3d2e:	ff 90       	pop	r15
    3d30:	ef 90       	pop	r14
    3d32:	df 90       	pop	r13
    3d34:	cf 90       	pop	r12
    3d36:	bf 90       	pop	r11
    3d38:	af 90       	pop	r10
    3d3a:	9f 90       	pop	r9
    3d3c:	8f 90       	pop	r8
    3d3e:	7f 90       	pop	r7
    3d40:	6f 90       	pop	r6
    3d42:	5f 90       	pop	r5
    3d44:	08 95       	ret

00003d46 <__udivmodhi4>:
    3d46:	aa 1b       	sub	r26, r26
    3d48:	bb 1b       	sub	r27, r27
    3d4a:	51 e1       	ldi	r21, 0x11	; 17
    3d4c:	07 c0       	rjmp	.+14     	; 0x3d5c <__udivmodhi4_ep>

00003d4e <__udivmodhi4_loop>:
    3d4e:	aa 1f       	adc	r26, r26
    3d50:	bb 1f       	adc	r27, r27
    3d52:	a6 17       	cp	r26, r22
    3d54:	b7 07       	cpc	r27, r23
    3d56:	10 f0       	brcs	.+4      	; 0x3d5c <__udivmodhi4_ep>
    3d58:	a6 1b       	sub	r26, r22
    3d5a:	b7 0b       	sbc	r27, r23

00003d5c <__udivmodhi4_ep>:
    3d5c:	88 1f       	adc	r24, r24
    3d5e:	99 1f       	adc	r25, r25
    3d60:	5a 95       	dec	r21
    3d62:	a9 f7       	brne	.-22     	; 0x3d4e <__udivmodhi4_loop>
    3d64:	80 95       	com	r24
    3d66:	90 95       	com	r25
    3d68:	bc 01       	movw	r22, r24
    3d6a:	cd 01       	movw	r24, r26
    3d6c:	08 95       	ret

00003d6e <__divmodhi4>:
    3d6e:	97 fb       	bst	r25, 7
    3d70:	07 2e       	mov	r0, r23
    3d72:	16 f4       	brtc	.+4      	; 0x3d78 <__divmodhi4+0xa>
    3d74:	00 94       	com	r0
    3d76:	07 d0       	rcall	.+14     	; 0x3d86 <__divmodhi4_neg1>
    3d78:	77 fd       	sbrc	r23, 7
    3d7a:	09 d0       	rcall	.+18     	; 0x3d8e <__divmodhi4_neg2>
    3d7c:	0e 94 a3 1e 	call	0x3d46	; 0x3d46 <__udivmodhi4>
    3d80:	07 fc       	sbrc	r0, 7
    3d82:	05 d0       	rcall	.+10     	; 0x3d8e <__divmodhi4_neg2>
    3d84:	3e f4       	brtc	.+14     	; 0x3d94 <__divmodhi4_exit>

00003d86 <__divmodhi4_neg1>:
    3d86:	90 95       	com	r25
    3d88:	81 95       	neg	r24
    3d8a:	9f 4f       	sbci	r25, 0xFF	; 255
    3d8c:	08 95       	ret

00003d8e <__divmodhi4_neg2>:
    3d8e:	70 95       	com	r23
    3d90:	61 95       	neg	r22
    3d92:	7f 4f       	sbci	r23, 0xFF	; 255

00003d94 <__divmodhi4_exit>:
    3d94:	08 95       	ret

00003d96 <__udivmodsi4>:
    3d96:	a1 e2       	ldi	r26, 0x21	; 33
    3d98:	1a 2e       	mov	r1, r26
    3d9a:	aa 1b       	sub	r26, r26
    3d9c:	bb 1b       	sub	r27, r27
    3d9e:	fd 01       	movw	r30, r26
    3da0:	0d c0       	rjmp	.+26     	; 0x3dbc <__udivmodsi4_ep>

00003da2 <__udivmodsi4_loop>:
    3da2:	aa 1f       	adc	r26, r26
    3da4:	bb 1f       	adc	r27, r27
    3da6:	ee 1f       	adc	r30, r30
    3da8:	ff 1f       	adc	r31, r31
    3daa:	a2 17       	cp	r26, r18
    3dac:	b3 07       	cpc	r27, r19
    3dae:	e4 07       	cpc	r30, r20
    3db0:	f5 07       	cpc	r31, r21
    3db2:	20 f0       	brcs	.+8      	; 0x3dbc <__udivmodsi4_ep>
    3db4:	a2 1b       	sub	r26, r18
    3db6:	b3 0b       	sbc	r27, r19
    3db8:	e4 0b       	sbc	r30, r20
    3dba:	f5 0b       	sbc	r31, r21

00003dbc <__udivmodsi4_ep>:
    3dbc:	66 1f       	adc	r22, r22
    3dbe:	77 1f       	adc	r23, r23
    3dc0:	88 1f       	adc	r24, r24
    3dc2:	99 1f       	adc	r25, r25
    3dc4:	1a 94       	dec	r1
    3dc6:	69 f7       	brne	.-38     	; 0x3da2 <__udivmodsi4_loop>
    3dc8:	60 95       	com	r22
    3dca:	70 95       	com	r23
    3dcc:	80 95       	com	r24
    3dce:	90 95       	com	r25
    3dd0:	9b 01       	movw	r18, r22
    3dd2:	ac 01       	movw	r20, r24
    3dd4:	bd 01       	movw	r22, r26
    3dd6:	cf 01       	movw	r24, r30
    3dd8:	08 95       	ret

00003dda <do_rand>:
    3dda:	8f 92       	push	r8
    3ddc:	9f 92       	push	r9
    3dde:	af 92       	push	r10
    3de0:	bf 92       	push	r11
    3de2:	cf 92       	push	r12
    3de4:	df 92       	push	r13
    3de6:	ef 92       	push	r14
    3de8:	ff 92       	push	r15
    3dea:	cf 93       	push	r28
    3dec:	df 93       	push	r29
    3dee:	ec 01       	movw	r28, r24
    3df0:	68 81       	ld	r22, Y
    3df2:	79 81       	ldd	r23, Y+1	; 0x01
    3df4:	8a 81       	ldd	r24, Y+2	; 0x02
    3df6:	9b 81       	ldd	r25, Y+3	; 0x03
    3df8:	61 15       	cp	r22, r1
    3dfa:	71 05       	cpc	r23, r1
    3dfc:	81 05       	cpc	r24, r1
    3dfe:	91 05       	cpc	r25, r1
    3e00:	21 f4       	brne	.+8      	; 0x3e0a <do_rand+0x30>
    3e02:	64 e2       	ldi	r22, 0x24	; 36
    3e04:	79 ed       	ldi	r23, 0xD9	; 217
    3e06:	8b e5       	ldi	r24, 0x5B	; 91
    3e08:	97 e0       	ldi	r25, 0x07	; 7
    3e0a:	2d e1       	ldi	r18, 0x1D	; 29
    3e0c:	33 ef       	ldi	r19, 0xF3	; 243
    3e0e:	41 e0       	ldi	r20, 0x01	; 1
    3e10:	50 e0       	ldi	r21, 0x00	; 0
    3e12:	0e 94 49 1f 	call	0x3e92	; 0x3e92 <__divmodsi4>
    3e16:	49 01       	movw	r8, r18
    3e18:	5a 01       	movw	r10, r20
    3e1a:	9b 01       	movw	r18, r22
    3e1c:	ac 01       	movw	r20, r24
    3e1e:	a7 ea       	ldi	r26, 0xA7	; 167
    3e20:	b1 e4       	ldi	r27, 0x41	; 65
    3e22:	0e 94 68 1f 	call	0x3ed0	; 0x3ed0 <__muluhisi3>
    3e26:	6b 01       	movw	r12, r22
    3e28:	7c 01       	movw	r14, r24
    3e2a:	ac ee       	ldi	r26, 0xEC	; 236
    3e2c:	b4 ef       	ldi	r27, 0xF4	; 244
    3e2e:	a5 01       	movw	r20, r10
    3e30:	94 01       	movw	r18, r8
    3e32:	0e 94 76 1f 	call	0x3eec	; 0x3eec <__mulohisi3>
    3e36:	dc 01       	movw	r26, r24
    3e38:	cb 01       	movw	r24, r22
    3e3a:	8c 0d       	add	r24, r12
    3e3c:	9d 1d       	adc	r25, r13
    3e3e:	ae 1d       	adc	r26, r14
    3e40:	bf 1d       	adc	r27, r15
    3e42:	b7 ff       	sbrs	r27, 7
    3e44:	03 c0       	rjmp	.+6      	; 0x3e4c <do_rand+0x72>
    3e46:	01 97       	sbiw	r24, 0x01	; 1
    3e48:	a1 09       	sbc	r26, r1
    3e4a:	b0 48       	sbci	r27, 0x80	; 128
    3e4c:	88 83       	st	Y, r24
    3e4e:	99 83       	std	Y+1, r25	; 0x01
    3e50:	aa 83       	std	Y+2, r26	; 0x02
    3e52:	bb 83       	std	Y+3, r27	; 0x03
    3e54:	9f 77       	andi	r25, 0x7F	; 127
    3e56:	df 91       	pop	r29
    3e58:	cf 91       	pop	r28
    3e5a:	ff 90       	pop	r15
    3e5c:	ef 90       	pop	r14
    3e5e:	df 90       	pop	r13
    3e60:	cf 90       	pop	r12
    3e62:	bf 90       	pop	r11
    3e64:	af 90       	pop	r10
    3e66:	9f 90       	pop	r9
    3e68:	8f 90       	pop	r8
    3e6a:	08 95       	ret

00003e6c <rand_r>:
    3e6c:	0e 94 ed 1e 	call	0x3dda	; 0x3dda <do_rand>
    3e70:	08 95       	ret

00003e72 <rand>:
    3e72:	82 e1       	ldi	r24, 0x12	; 18
    3e74:	91 e0       	ldi	r25, 0x01	; 1
    3e76:	0e 94 ed 1e 	call	0x3dda	; 0x3dda <do_rand>
    3e7a:	08 95       	ret

00003e7c <srand>:
    3e7c:	a0 e0       	ldi	r26, 0x00	; 0
    3e7e:	b0 e0       	ldi	r27, 0x00	; 0
    3e80:	80 93 12 01 	sts	0x0112, r24	; 0x800112 <next>
    3e84:	90 93 13 01 	sts	0x0113, r25	; 0x800113 <next+0x1>
    3e88:	a0 93 14 01 	sts	0x0114, r26	; 0x800114 <next+0x2>
    3e8c:	b0 93 15 01 	sts	0x0115, r27	; 0x800115 <next+0x3>
    3e90:	08 95       	ret

00003e92 <__divmodsi4>:
    3e92:	05 2e       	mov	r0, r21
    3e94:	97 fb       	bst	r25, 7
    3e96:	1e f4       	brtc	.+6      	; 0x3e9e <__divmodsi4+0xc>
    3e98:	00 94       	com	r0
    3e9a:	0e 94 60 1f 	call	0x3ec0	; 0x3ec0 <__negsi2>
    3e9e:	57 fd       	sbrc	r21, 7
    3ea0:	07 d0       	rcall	.+14     	; 0x3eb0 <__divmodsi4_neg2>
    3ea2:	0e 94 cb 1e 	call	0x3d96	; 0x3d96 <__udivmodsi4>
    3ea6:	07 fc       	sbrc	r0, 7
    3ea8:	03 d0       	rcall	.+6      	; 0x3eb0 <__divmodsi4_neg2>
    3eaa:	4e f4       	brtc	.+18     	; 0x3ebe <__divmodsi4_exit>
    3eac:	0c 94 60 1f 	jmp	0x3ec0	; 0x3ec0 <__negsi2>

00003eb0 <__divmodsi4_neg2>:
    3eb0:	50 95       	com	r21
    3eb2:	40 95       	com	r20
    3eb4:	30 95       	com	r19
    3eb6:	21 95       	neg	r18
    3eb8:	3f 4f       	sbci	r19, 0xFF	; 255
    3eba:	4f 4f       	sbci	r20, 0xFF	; 255
    3ebc:	5f 4f       	sbci	r21, 0xFF	; 255

00003ebe <__divmodsi4_exit>:
    3ebe:	08 95       	ret

00003ec0 <__negsi2>:
    3ec0:	90 95       	com	r25
    3ec2:	80 95       	com	r24
    3ec4:	70 95       	com	r23
    3ec6:	61 95       	neg	r22
    3ec8:	7f 4f       	sbci	r23, 0xFF	; 255
    3eca:	8f 4f       	sbci	r24, 0xFF	; 255
    3ecc:	9f 4f       	sbci	r25, 0xFF	; 255
    3ece:	08 95       	ret

00003ed0 <__muluhisi3>:
    3ed0:	0e 94 7b 1f 	call	0x3ef6	; 0x3ef6 <__umulhisi3>
    3ed4:	a5 9f       	mul	r26, r21
    3ed6:	90 0d       	add	r25, r0
    3ed8:	b4 9f       	mul	r27, r20
    3eda:	90 0d       	add	r25, r0
    3edc:	a4 9f       	mul	r26, r20
    3ede:	80 0d       	add	r24, r0
    3ee0:	91 1d       	adc	r25, r1
    3ee2:	11 24       	eor	r1, r1
    3ee4:	08 95       	ret

00003ee6 <__mulshisi3>:
    3ee6:	b7 ff       	sbrs	r27, 7
    3ee8:	0c 94 68 1f 	jmp	0x3ed0	; 0x3ed0 <__muluhisi3>

00003eec <__mulohisi3>:
    3eec:	0e 94 68 1f 	call	0x3ed0	; 0x3ed0 <__muluhisi3>
    3ef0:	82 1b       	sub	r24, r18
    3ef2:	93 0b       	sbc	r25, r19
    3ef4:	08 95       	ret

00003ef6 <__umulhisi3>:
    3ef6:	a2 9f       	mul	r26, r18
    3ef8:	b0 01       	movw	r22, r0
    3efa:	b3 9f       	mul	r27, r19
    3efc:	c0 01       	movw	r24, r0
    3efe:	a3 9f       	mul	r26, r19
    3f00:	70 0d       	add	r23, r0
    3f02:	81 1d       	adc	r24, r1
    3f04:	11 24       	eor	r1, r1
    3f06:	91 1d       	adc	r25, r1
    3f08:	b2 9f       	mul	r27, r18
    3f0a:	70 0d       	add	r23, r0
    3f0c:	81 1d       	adc	r24, r1
    3f0e:	11 24       	eor	r1, r1
    3f10:	91 1d       	adc	r25, r1
    3f12:	08 95       	ret

00003f14 <_exit>:
    3f14:	f8 94       	cli

00003f16 <__stop_program>:
    3f16:	ff cf       	rjmp	.-2      	; 0x3f16 <__stop_program>
